Archive member included because of file (symbol)

../../../../../ss/runtime/libxe/libxert.a(xe-codelet.o)
                              main.o (rmd_codelet_create)
../../../../../ss/runtime/libxe/libxert.a(xe-codelet-header.o)
                              ../../../../../ss/bin/rmd-linux-elf/lib/crt0_lxe.o (codelet_header)
../../../../../ss/runtime/libxe/libxert.a(xe-console.o)
                              main.o (xe_printf)
../../../../../ss/runtime/libxe/libxert.a(codelet-main.o)
                              ../../../../../ss/bin/rmd-linux-elf/lib/crt0_lxe.o (rmd_main)
../../../../../ss/runtime/libxe/libxert.a(xe-allocators.o)
                              ../../../../../ss/runtime/libxe/libxert.a(xe-codelet-header.o) (xe_initialize_memories)
../../../../../ss/runtime/libxe/libxert.a(xe-memory.o)
                              rag_rmd.o (rmd_db_alloc)
../../../../../ss/runtime/libxe/libxert.a(xe-tlsf-allocator.o)
                              ../../../../../ss/runtime/libxe/libxert.a(xe-allocators.o) (tlsf_init)
../../../../../ss/runtime/libxe/libxert.a(xe-guid-allocator.o)
                              ../../../../../ss/runtime/libxe/libxert.a(xe-allocators.o) (guid_alloc_init)
../../../../../ss/runtime/libxe/libxert.a(xe-utils.o)
                              ../../../../../ss/runtime/libxe/libxert.a(xe-tlsf-allocator.o) (fls32)
../../../../../ss/runtime/libxe/libxert.a(xe-dumper.o)
                              ../../../../../ss/runtime/libxe/libxert.a(xe-guid-allocator.o) (dump_guid)
../../../../../ss/bin/rmd-linux-elf/lib/libc.a(lib_a-exit.o)
                              main.o (exit)
../../../../../ss/bin/rmd-linux-elf/lib/libc.a(lib_a-fprintf.o)
                              main.o (fprintf)
../../../../../ss/bin/rmd-linux-elf/lib/libc.a(lib_a-impure.o)
                              main.o (_impure_ptr)
../../../../../ss/bin/rmd-linux-elf/lib/libc.a(lib_a-memcpy.o)
                              registration.o (memcpy)
../../../../../ss/bin/rmd-linux-elf/lib/libc.a(lib_a-memset.o)
                              back_proj.o (memset)
../../../../../ss/bin/rmd-linux-elf/lib/libc.a(lib_a-printf.o)
                              fftw3.o (printf)
../../../../../ss/bin/rmd-linux-elf/lib/libc.a(lib_a-strerror.o)
                              back_proj.o (strerror)
../../../../../ss/bin/rmd-linux-elf/lib/libc.a(lib_a-u_strerr.o)
                              ../../../../../ss/bin/rmd-linux-elf/lib/libc.a(lib_a-strerror.o) (_user_strerror)
../../../../../ss/bin/rmd-linux-elf/lib/libc.a(lib_a-vfprintf.o)
                              ../../../../../ss/bin/rmd-linux-elf/lib/libc.a(lib_a-fprintf.o) (_vfprintf_r)
../../../../../ss/bin/rmd-linux-elf/lib/libc.a(lib_a-wsetup.o)
                              ../../../../../ss/bin/rmd-linux-elf/lib/libc.a(lib_a-vfprintf.o) (__swsetup_r)
../../../../../ss/bin/rmd-linux-elf/lib/libc.a(lib_a-__call_atexit.o)
                              ../../../../../ss/bin/rmd-linux-elf/lib/libc.a(lib_a-exit.o) (__call_exitprocs)
../../../../../ss/bin/rmd-linux-elf/lib/libc.a(lib_a-dtoa.o)
                              ../../../../../ss/bin/rmd-linux-elf/lib/libc.a(lib_a-vfprintf.o) (_dtoa_r)
../../../../../ss/bin/rmd-linux-elf/lib/libc.a(lib_a-fflush.o)
                              ../../../../../ss/bin/rmd-linux-elf/lib/libc.a(lib_a-vfprintf.o) (_fflush_r)
../../../../../ss/bin/rmd-linux-elf/lib/libc.a(lib_a-findfp.o)
                              ../../../../../ss/bin/rmd-linux-elf/lib/libc.a(lib_a-printf.o) (__sinit)
../../../../../ss/bin/rmd-linux-elf/lib/libc.a(lib_a-fwalk.o)
                              ../../../../../ss/bin/rmd-linux-elf/lib/libc.a(lib_a-findfp.o) (_fwalk)
../../../../../ss/bin/rmd-linux-elf/lib/libc.a(lib_a-locale.o)
                              ../../../../../ss/bin/rmd-linux-elf/lib/libc.a(lib_a-vfprintf.o) (_localeconv_r)
../../../../../ss/bin/rmd-linux-elf/lib/libc.a(lib_a-makebuf.o)
                              ../../../../../ss/bin/rmd-linux-elf/lib/libc.a(lib_a-wsetup.o) (__smakebuf_r)
../../../../../ss/bin/rmd-linux-elf/lib/libc.a(lib_a-memchr.o)
                              ../../../../../ss/bin/rmd-linux-elf/lib/libc.a(lib_a-vfprintf.o) (memchr)
../../../../../ss/bin/rmd-linux-elf/lib/libc.a(lib_a-mprec.o)
                              ../../../../../ss/bin/rmd-linux-elf/lib/libc.a(lib_a-dtoa.o) (_Balloc)
../../../../../ss/bin/rmd-linux-elf/lib/libc.a(lib_a-stdio.o)
                              ../../../../../ss/bin/rmd-linux-elf/lib/libc.a(lib_a-findfp.o) (__sread)
../../../../../ss/bin/rmd-linux-elf/lib/libc.a(lib_a-strcmp.o)
                              ../../../../../ss/bin/rmd-linux-elf/lib/libc.a(lib_a-locale.o) (strcmp)
../../../../../ss/bin/rmd-linux-elf/lib/libc.a(lib_a-strlen.o)
                              ../../../../../ss/bin/rmd-linux-elf/lib/libc.a(lib_a-vfprintf.o) (strlen)
../../../../../ss/bin/rmd-linux-elf/lib/libc.a(lib_a-vfiprintf.o)
                              ../../../../../ss/bin/rmd-linux-elf/lib/libc.a(lib_a-vfprintf.o) (__sprint_r)
../../../../../ss/bin/rmd-linux-elf/lib/libc.a(lib_a-writer.o)
                              ../../../../../ss/bin/rmd-linux-elf/lib/libc.a(lib_a-stdio.o) (_write_r)
../../../../../ss/bin/rmd-linux-elf/lib/libc.a(lib_a-closer.o)
                              ../../../../../ss/bin/rmd-linux-elf/lib/libc.a(lib_a-stdio.o) (_close_r)
../../../../../ss/bin/rmd-linux-elf/lib/libc.a(lib_a-fclose.o)
                              ../../../../../ss/bin/rmd-linux-elf/lib/libc.a(lib_a-findfp.o) (fclose)
../../../../../ss/bin/rmd-linux-elf/lib/libc.a(lib_a-fputwc.o)
                              ../../../../../ss/bin/rmd-linux-elf/lib/libc.a(lib_a-vfiprintf.o) (_fputwc_r)
../../../../../ss/bin/rmd-linux-elf/lib/libc.a(lib_a-fstatr.o)
                              ../../../../../ss/bin/rmd-linux-elf/lib/libc.a(lib_a-makebuf.o) (_fstat_r)
../../../../../ss/bin/rmd-linux-elf/lib/libc.a(lib_a-fvwrite.o)
                              ../../../../../ss/bin/rmd-linux-elf/lib/libc.a(lib_a-vfiprintf.o) (__sfvwrite_r)
../../../../../ss/bin/rmd-linux-elf/lib/libc.a(lib_a-isattyr.o)
                              ../../../../../ss/bin/rmd-linux-elf/lib/libc.a(lib_a-makebuf.o) (_isatty_r)
../../../../../ss/bin/rmd-linux-elf/lib/libc.a(lib_a-lseekr.o)
                              ../../../../../ss/bin/rmd-linux-elf/lib/libc.a(lib_a-stdio.o) (_lseek_r)
../../../../../ss/bin/rmd-linux-elf/lib/libc.a(lib_a-memmove.o)
                              ../../../../../ss/bin/rmd-linux-elf/lib/libc.a(lib_a-fvwrite.o) (memmove)
../../../../../ss/bin/rmd-linux-elf/lib/libc.a(lib_a-readr.o)
                              ../../../../../ss/bin/rmd-linux-elf/lib/libc.a(lib_a-stdio.o) (_read_r)
../../../../../ss/bin/rmd-linux-elf/lib/libc.a(lib_a-reent.o)
                              ../../../../../ss/bin/rmd-linux-elf/lib/libc.a(lib_a-writer.o) (errno)
../../../../../ss/bin/rmd-linux-elf/lib/libc.a(lib_a-wbuf.o)
                              ../../../../../ss/bin/rmd-linux-elf/lib/libc.a(lib_a-fputwc.o) (__swbuf_r)
../../../../../ss/bin/rmd-linux-elf/lib/libc.a(lib_a-wcrtomb.o)
                              ../../../../../ss/bin/rmd-linux-elf/lib/libc.a(lib_a-fputwc.o) (_wcrtomb_r)
../../../../../ss/bin/rmd-linux-elf/lib/libc.a(lib_a-wctomb_r.o)
                              ../../../../../ss/bin/rmd-linux-elf/lib/libc.a(lib_a-wcrtomb.o) (__wctomb)
../../../../../ss/bin/rmd-linux-elf/lib/libm.a(lib_a-s_fabs.o)
                              ../../../../../ss/bin/rmd-linux-elf/lib/libc.a(lib_a-vfprintf.o) (fabs)
../../../../../ss/bin/rmd-linux-elf/lib/libm.a(lib_a-sf_ceil.o)
                              main.o (ceilf)
../../../../../ss/bin/rmd-linux-elf/lib/libm.a(lib_a-sf_fabs.o)
                              registration.o (fabsf)
../../../../../ss/bin/rmd-linux-elf/lib/libm.a(lib_a-sf_floor.o)
                              main.o (floorf)
../../../../../ss/bin/rmd-linux-elf/lib/libm.a(lib_a-sf_sincos.o)
                              back_proj.o (sincosf)
../../../../../ss/bin/rmd-linux-elf/lib/libm.a(lib_a-sf_sin.o)
                              sinc.o (sinf)
../../../../../ss/bin/rmd-linux-elf/lib/libm.a(lib_a-s_round.o)
                              back_proj.o (round)
../../../../../ss/bin/rmd-linux-elf/lib/libm.a(lib_a-wf_fmod.o)
                              sinc_interp.o (fmodf)
../../../../../ss/bin/rmd-linux-elf/lib/libm.a(lib_a-wf_sqrt.o)
                              registration.o (sqrtf)
../../../../../ss/bin/rmd-linux-elf/lib/libm.a(lib_a-w_sqrt.o)
                              back_proj.o (sqrt)
../../../../../ss/bin/rmd-linux-elf/lib/libm.a(lib_a-ef_fmod.o)
                              ../../../../../ss/bin/rmd-linux-elf/lib/libm.a(lib_a-wf_fmod.o) (__ieee754_fmodf)
../../../../../ss/bin/rmd-linux-elf/lib/libm.a(lib_a-ef_rem_pio2.o)
                              ../../../../../ss/bin/rmd-linux-elf/lib/libm.a(lib_a-sf_sin.o) (__ieee754_rem_pio2f)
../../../../../ss/bin/rmd-linux-elf/lib/libm.a(lib_a-ef_sqrt.o)
                              ../../../../../ss/bin/rmd-linux-elf/lib/libm.a(lib_a-wf_sqrt.o) (__ieee754_sqrtf)
../../../../../ss/bin/rmd-linux-elf/lib/libm.a(lib_a-e_sqrt.o)
                              ../../../../../ss/bin/rmd-linux-elf/lib/libm.a(lib_a-w_sqrt.o) (__ieee754_sqrt)
../../../../../ss/bin/rmd-linux-elf/lib/libm.a(lib_a-kf_cos.o)
                              ../../../../../ss/bin/rmd-linux-elf/lib/libm.a(lib_a-sf_sin.o) (__kernel_cosf)
../../../../../ss/bin/rmd-linux-elf/lib/libm.a(lib_a-kf_rem_pio2.o)
                              ../../../../../ss/bin/rmd-linux-elf/lib/libm.a(lib_a-ef_rem_pio2.o) (__kernel_rem_pio2f)
../../../../../ss/bin/rmd-linux-elf/lib/libm.a(lib_a-kf_sin.o)
                              ../../../../../ss/bin/rmd-linux-elf/lib/libm.a(lib_a-sf_sin.o) (__kernel_sinf)
../../../../../ss/bin/rmd-linux-elf/lib/libm.a(lib_a-sf_scalbn.o)
                              ../../../../../ss/bin/rmd-linux-elf/lib/libm.a(lib_a-kf_rem_pio2.o) (scalbnf)
../../../../../ss/bin/rmd-linux-elf/lib/libm.a(lib_a-s_lib_ver.o)
                              ../../../../../ss/bin/rmd-linux-elf/lib/libm.a(lib_a-wf_fmod.o) (__fdlib_version)
../../../../../ss/bin/rmd-linux-elf/lib/libm.a(lib_a-s_matherr.o)
                              ../../../../../ss/bin/rmd-linux-elf/lib/libm.a(lib_a-wf_fmod.o) (matherr)
../../../../../ss/bin/rmd-linux-elf/lib/libm.a(lib_a-sf_copysign.o)
                              ../../../../../ss/bin/rmd-linux-elf/lib/libm.a(lib_a-sf_scalbn.o) (copysignf)
../../../../../ss/bin/rmd-linux-elf/lib/libgloss_lxe.a(close.o)
                              ../../../../../ss/bin/rmd-linux-elf/lib/libc.a(lib_a-closer.o) (_close)
../../../../../ss/bin/rmd-linux-elf/lib/libgloss_lxe.a(fstat.o)
                              ../../../../../ss/bin/rmd-linux-elf/lib/libc.a(lib_a-fstatr.o) (_fstat)
../../../../../ss/bin/rmd-linux-elf/lib/libgloss_lxe.a(isatty.o)
                              ../../../../../ss/bin/rmd-linux-elf/lib/libc.a(lib_a-isattyr.o) (_isatty)
../../../../../ss/bin/rmd-linux-elf/lib/libgloss_lxe.a(lseek.o)
                              ../../../../../ss/bin/rmd-linux-elf/lib/libc.a(lib_a-lseekr.o) (_lseek)
../../../../../ss/bin/rmd-linux-elf/lib/libgloss_lxe.a(read.o)
                              ../../../../../ss/bin/rmd-linux-elf/lib/libc.a(lib_a-readr.o) (_read)
../../../../../ss/bin/rmd-linux-elf/lib/libgloss_lxe.a(write.o)
                              ../../../../../ss/bin/rmd-linux-elf/lib/libc.a(lib_a-writer.o) (_write)
../../../../../ss/bin/rmd-linux-elf/lib/libgloss_lxe.a(_exit.o)
                              ../../../../../ss/bin/rmd-linux-elf/lib/crt0_lxe.o (_exit)
../../../../../ss/bin/rmd-linux-elf/lib/libgloss_lxe.a(malloc.o)
                              back_proj.o (malloc)
../../../../../ss/bin/rmd-linux-elf/lib/libgloss_lxe.a(mallocr.o)
                              ../../../../../ss/bin/rmd-linux-elf/lib/libc.a(lib_a-findfp.o) (_malloc_r)
../../../../../ss/bin/rmd-linux-elf/lib/libc.a(lib_a-errno.o)
                              ../../../../../ss/bin/rmd-linux-elf/lib/libm.a(lib_a-wf_fmod.o) (__errno)

Memory Configuration

Name             Origin             Length             Attributes
LOCAL_RAM        0x0000000000000000 0x0000000000100000
BLOCK0_RAM       0x0000000000200000 0x0000000000140000
BLOCK1_RAM       0x0000000000400000 0x0000000000140000
CHIP_DRAM        0x0000000200000000 0x0000000020000000
*default*        0x0000000000000000 0xffffffffffffffff

Linker script and memory map


.xe_tls         0x0000000000000000       0x10
                0x0000000000000000                _fxetls = ABSOLUTE (.)
 xe-tls.o(.bss_local)
 .bss_local     0x0000000000000000       0x10 ../../../../../ss/runtime/libxe/xe-tls.o
                0x0000000000000000                __xe_tls
                0x0000000000000010                _exetls = ABSOLUTE (.)

.text           0x0000000000000010    0x24680
                0x0000000000000010                . = ALIGN (0x8)
                0x0000000000000010                _start = ABSOLUTE (.)
                0x0000000000000010                _ftext = ABSOLUTE (.)
 crt0_lxe.o(.text)
 .text          0x0000000000000010       0xb0 ../../../../../ss/bin/rmd-linux-elf/lib/crt0_lxe.o
                0x00000000000000c0                einit = ABSOLUTE (.)
 *(.init)
                0x00000000000000c0                eprol = ABSOLUTE (.)
 *(.text)
 .text          0x00000000000000c0        0x0 ../../../../../ss/runtime/libxe/xe-tls.o
 .text          0x00000000000000c0     0x3688 main.o
                0x00000000000000c0                main_codelet
                0x0000000000001ffc                main_body_codelet
                0x0000000000002e0c                post_main_codelet
 .text          0x0000000000003748      0x828 inputs.o
                0x0000000000003748                ReadParams
                0x0000000000003824                ReadData_codelet
                0x0000000000003a88                ReadData
 .text          0x0000000000003f70      0xd18 image_formation.o
                0x0000000000003f70                post_FormImage_codelet
                0x0000000000004208                FormImage_codelet
 .text          0x0000000000004c88        0x0 digspot.o
 .text          0x0000000000004c88     0x2750 back_proj.o
                0x0000000000004c88                backproject_finish_codelet
                0x0000000000004de8                backproject_async_codelet
                0x0000000000006078                BackProj_codelet
 .text          0x00000000000073d8     0x3c58 registration.o
                0x00000000000073d8                post_Affine_codelet
                0x0000000000007718                Affine_codelet
                0x0000000000007994                Affine
                0x000000000000869c                affine_finish_1_codelet
                0x0000000000009480                gauss_elim
                0x000000000000994c                affine_async_2_codelet
                0x0000000000009f08                affine_finish_2_codelet
                0x000000000000a3a0                affine_async_1_codelet
                0x000000000000a824                corr2D
 .text          0x000000000000b030     0x13f8 ccd.o
                0x000000000000b030                post_CCD_codelet
                0x000000000000b1b4                CCD_codelet
                0x000000000000b3f0                CCD
                0x000000000000bb44                ccd_finish_codelet
                0x000000000000bcb0                ccd_async_codelet
 .text          0x000000000000c428     0x16d0 cfar.o
                0x000000000000c428                post_CFAR_codelet
                0x000000000000c6dc                CFAR_codelet
                0x000000000000c954                CFAR
                0x000000000000d118                cfar_finish_codelet
                0x000000000000d2fc                cfar_async_codelet
 .text          0x000000000000daf8      0x358 sinc_interp.o
                0x000000000000daf8                sinc_interp
 .text          0x000000000000de50       0x78 sinc.o
                0x000000000000de50                sinc
 .text          0x000000000000dec8      0x910 fftw3.o
                0x000000000000dec8                fftwf_plan_dft_1d
                0x000000000000dfd0                fftwf_destroy_plan
                0x000000000000dff4                fftwf_malloc
                0x000000000000e0b4                fftwf_free
                0x000000000000e0f4                fftwf_execute
 .text          0x000000000000e7d8      0xcd8 rag_rmd.o
                0x000000000000e7d8                spad_calloc
                0x000000000000e9a4                spad_malloc
                0x000000000000eb40                spad_free
                0x000000000000eba8                spad_memset
                0x000000000000ebe8                bsm_calloc
                0x000000000000edc4                bsm_memset
                0x000000000000ede8                bsm_malloc
                0x000000000000ef84                bsm_free
                0x000000000000efec                dram_calloc
                0x000000000000f1c8                dram_memset
                0x000000000000f1ec                dram_malloc
                0x000000000000f388                dram_free
                0x000000000000f3f0                RAG_GET_INT
                0x000000000000f3f8                RAG_PUT_INT
                0x000000000000f400                RAG_GET_UINT
                0x000000000000f408                RAG_PUT_UINT
                0x000000000000f410                RAG_GET_LONG
                0x000000000000f418                RAG_PUT_LONG
                0x000000000000f420                RAG_GET_ULONG
                0x000000000000f428                RAG_PUT_ULONG
                0x000000000000f430                RAG_GET_FLT
                0x000000000000f438                RAG_PUT_FLT
                0x000000000000f440                RAG_GET_DBL
                0x000000000000f44c                RAG_PUT_DBL
                0x000000000000f454                RAG_GET_PTR
                0x000000000000f45c                RAG_PUT_PTR
                0x000000000000f464                GlobalPtrToDataBlock
                0x000000000000f470                SPADtoBSM
                0x000000000000f47c                BSMtoSPAD
                0x000000000000f488                SPADtoDRAM
                0x000000000000f494                DRAMtoSPAD
                0x000000000000f4a0                BSMtoBSM
 .text          0x000000000000f4b0        0x0 ./Data.o
 .text          0x000000000000f4b0        0x0 ./PlatformPosition.o
 .text          0x000000000000f4b0        0x0 ./PulseTransmissionTime.o
 .text          0x000000000000f4b0      0x2f0 ../../../../../ss/runtime/libxe/libxert.a(xe-codelet.o)
                0x000000000000f4b0                rmd_event_create
                0x000000000000f4e4                rmd_event_satisfy
                0x000000000000f518                rmd_event_delete
                0x000000000000f548                rmd_codelet_create
                0x000000000000f57c                rmd_codelet_sched
                0x000000000000f5b4                rmd_codelet_satisfy
                0x000000000000f5ec                rmd_codelet_delete
                0x000000000000f61c                rmd_dep_add
                0x000000000000f654                rmd_dep_delete
                0x000000000000f68c                rmd_complete
                0x000000000000f6a8                xe_coreid_test
 .text          0x000000000000f7a0       0x80 ../../../../../ss/runtime/libxe/libxert.a(xe-codelet-header.o)
                0x000000000000f7a0                codelet_header
 .text          0x000000000000f820      0x940 ../../../../../ss/runtime/libxe/libxert.a(xe-console.o)
                0x000000000000f820                xe_snprintf
                0x00000000000100dc                conout
                0x00000000000100f4                xe_printf
 .text          0x0000000000010160      0x660 ../../../../../ss/runtime/libxe/libxert.a(codelet-main.o)
                0x0000000000010160                rmd_main
 .text          0x00000000000107c0      0xc10 ../../../../../ss/runtime/libxe/libxert.a(xe-allocators.o)
                0x00000000000107c0                xe_initialize_memories
                0x0000000000010d68                xe_finalize_memories
 .text          0x00000000000113d0     0x2300 ../../../../../ss/runtime/libxe/libxert.a(xe-memory.o)
                0x00000000000113d0                rmd_db_alloc
                0x0000000000011ce8                rmd_db_free
                0x000000000001236c                rmd_db_acquire
                0x00000000000128f4                rmd_db_release
                0x0000000000012d90                xe_malloc
                0x0000000000012e24                xe_free
                0x0000000000012ee4                xe_realloc
 .text          0x00000000000136d0     0x3268 ../../../../../ss/runtime/libxe/libxert.a(xe-tlsf-allocator.o)
                0x00000000000136d0                addressForBlock
                0x00000000000136d8                blockForAddress
                0x0000000000013704                addFreeBlock
                0x0000000000014040                tlsf_init
                0x000000000001462c                tlsf_resize
                0x000000000001465c                tlsf_malloc
                0x00000000000157c0                tlsf_free
                0x0000000000015e40                tlsf_realloc
                0x00000000000162b0                tlsf_extra_to_ptr
                0x00000000000162b8                tlsf_ptr_to_extra
 .text          0x0000000000016938      0xb58 ../../../../../ss/runtime/libxe/libxert.a(xe-guid-allocator.o)
                0x0000000000016938                guid_alloc_init
                0x0000000000016bcc                guid_alloc_resize
                0x0000000000016c0c                guid_alloc_malloc
                0x0000000000016ea4                guid_alloc_free
                0x0000000000016ff8                guid_alloc_realloc
                0x000000000001713c                guid_extra_to_ptr
                0x0000000000017168                guid_ptr_to_extra
                0x00000000000171e0                guid_alloc_walk
 .text          0x0000000000017490      0x188 ../../../../../ss/runtime/libxe/libxert.a(xe-utils.o)
                0x0000000000017490                fls16
                0x00000000000174e8                fls32
                0x000000000001755c                fls64
 .text          0x0000000000017618      0x5b0 ../../../../../ss/runtime/libxe/libxert.a(xe-dumper.o)
                0x0000000000017618                dump_db
                0x0000000000017ac4                dump_guid
 .text          0x0000000000017bc8       0x88 ../../../../../ss/bin/rmd-linux-elf/lib/libc.a(lib_a-exit.o)
                0x0000000000017bc8                exit
 .text          0x0000000000017c50       0xb0 ../../../../../ss/bin/rmd-linux-elf/lib/libc.a(lib_a-fprintf.o)
                0x0000000000017c50                _fprintf_r
                0x0000000000017c98                fprintf
 .text          0x0000000000017d00        0x0 ../../../../../ss/bin/rmd-linux-elf/lib/libc.a(lib_a-impure.o)
 .text          0x0000000000017d00       0x38 ../../../../../ss/bin/rmd-linux-elf/lib/libc.a(lib_a-memcpy.o)
                0x0000000000017d00                memcpy
 .text          0x0000000000017d38       0x30 ../../../../../ss/bin/rmd-linux-elf/lib/libc.a(lib_a-memset.o)
                0x0000000000017d38                memset
 .text          0x0000000000017d68      0x150 ../../../../../ss/bin/rmd-linux-elf/lib/libc.a(lib_a-printf.o)
                0x0000000000017d68                _printf_r
                0x0000000000017e08                printf
 .text          0x0000000000017eb8      0x638 ../../../../../ss/bin/rmd-linux-elf/lib/libc.a(lib_a-strerror.o)
                0x0000000000017eb8                strerror
 .text          0x00000000000184f0        0x8 ../../../../../ss/bin/rmd-linux-elf/lib/libc.a(lib_a-u_strerr.o)
                0x00000000000184f0                _user_strerror
 .text          0x00000000000184f8     0x2708 ../../../../../ss/bin/rmd-linux-elf/lib/libc.a(lib_a-vfprintf.o)
                0x00000000000184f8                vfprintf
                0x000000000001854c                _vfprintf_r
 .text          0x000000000001ac00      0x258 ../../../../../ss/bin/rmd-linux-elf/lib/libc.a(lib_a-wsetup.o)
                0x000000000001ac00                __swsetup_r
 .text          0x000000000001ae58      0x260 ../../../../../ss/bin/rmd-linux-elf/lib/libc.a(lib_a-__call_atexit.o)
                0x000000000001ae58                __call_exitprocs
 .text          0x000000000001b0b8     0x16b8 ../../../../../ss/bin/rmd-linux-elf/lib/libc.a(lib_a-dtoa.o)
                0x000000000001b0b8                _dtoa_r
 .text          0x000000000001c770      0x470 ../../../../../ss/bin/rmd-linux-elf/lib/libc.a(lib_a-fflush.o)
                0x000000000001c770                _fflush_r
                0x000000000001cb4c                fflush
 .text          0x000000000001cbe0      0x610 ../../../../../ss/bin/rmd-linux-elf/lib/libc.a(lib_a-findfp.o)
                0x000000000001cbe0                __sfmoreglue
                0x000000000001cc8c                __sfp
                0x000000000001ce00                __sfp_lock_acquire
                0x000000000001ce04                __sinit
                0x000000000001d058                __sfp_lock_release
                0x000000000001d05c                _cleanup_r
                0x000000000001d0ac                _cleanup
                0x000000000001d110                __sinit_lock_acquire
                0x000000000001d114                __sinit_lock_release
                0x000000000001d118                __fp_lock_all
                0x000000000001d184                __fp_unlock_all
 .text          0x000000000001d1f0      0x250 ../../../../../ss/bin/rmd-linux-elf/lib/libc.a(lib_a-fwalk.o)
                0x000000000001d1f0                _fwalk
                0x000000000001d310                _fwalk_reent
 .text          0x000000000001d440      0x1a0 ../../../../../ss/bin/rmd-linux-elf/lib/libc.a(lib_a-locale.o)
                0x000000000001d440                _setlocale_r
                0x000000000001d538                __locale_charset
                0x000000000001d54c                __locale_mb_cur_max
                0x000000000001d564                __locale_msgcharset
                0x000000000001d578                __locale_cjk_lang
                0x000000000001d580                _localeconv_r
                0x000000000001d594                setlocale
                0x000000000001d5c8                localeconv
 .text          0x000000000001d5e0      0x220 ../../../../../ss/bin/rmd-linux-elf/lib/libc.a(lib_a-makebuf.o)
                0x000000000001d5e0                __smakebuf_r
 .text          0x000000000001d800       0x30 ../../../../../ss/bin/rmd-linux-elf/lib/libc.a(lib_a-memchr.o)
                0x000000000001d800                memchr
 .text          0x000000000001d830     0x14f8 ../../../../../ss/bin/rmd-linux-elf/lib/libc.a(lib_a-mprec.o)
                0x000000000001d830                _Balloc
                0x000000000001d998                _Bfree
                0x000000000001da5c                __multadd
                0x000000000001db98                __s2b
                0x000000000001dd00                __hi0bits
                0x000000000001dd94                __lo0bits
                0x000000000001de68                __i2b
                0x000000000001debc                __multiply
                0x000000000001e0fc                __pow5mult
                0x000000000001e2c4                __lshift
                0x000000000001e454                __mcmp
                0x000000000001e4c4                __mdiff
                0x000000000001e6ac                __ulp
                0x000000000001e778                __b2d
                0x000000000001e920                __d2b
                0x000000000001eab4                __ratio
                0x000000000001ebc8                _mprec_log10
                0x000000000001ec14                __copybits
                0x000000000001ec90                __any_on
 .text          0x000000000001ed28      0x240 ../../../../../ss/bin/rmd-linux-elf/lib/libc.a(lib_a-stdio.o)
                0x000000000001ed28                __sread
                0x000000000001edb0                __seofread
                0x000000000001edb8                __swrite
                0x000000000001ee88                __sseek
                0x000000000001ef1c                __sclose
 .text          0x000000000001ef68       0x58 ../../../../../ss/bin/rmd-linux-elf/lib/libc.a(lib_a-strcmp.o)
                0x000000000001ef68                strcmp
 .text          0x000000000001efc0       0x20 ../../../../../ss/bin/rmd-linux-elf/lib/libc.a(lib_a-strlen.o)
                0x000000000001efc0                strlen
 .text          0x000000000001efe0     0x1540 ../../../../../ss/bin/rmd-linux-elf/lib/libc.a(lib_a-vfiprintf.o)
                0x000000000001efe0                __sprint_r
                0x000000000001f134                vfiprintf
                0x000000000001f188                _vfiprintf_r
 .text          0x0000000000020520       0xa0 ../../../../../ss/bin/rmd-linux-elf/lib/libc.a(lib_a-writer.o)
                0x0000000000020520                _write_r
 .text          0x00000000000205c0       0x98 ../../../../../ss/bin/rmd-linux-elf/lib/libc.a(lib_a-closer.o)
                0x00000000000205c0                _close_r
 .text          0x0000000000020658      0x268 ../../../../../ss/bin/rmd-linux-elf/lib/libc.a(lib_a-fclose.o)
                0x0000000000020658                _fclose_r
                0x0000000000020874                fclose
 .text          0x00000000000208c0      0x330 ../../../../../ss/bin/rmd-linux-elf/lib/libc.a(lib_a-fputwc.o)
                0x00000000000208c0                _fputwc_r
                0x0000000000020ac4                fputwc
 .text          0x0000000000020bf0       0xa0 ../../../../../ss/bin/rmd-linux-elf/lib/libc.a(lib_a-fstatr.o)
                0x0000000000020bf0                _fstat_r
 .text          0x0000000000020c90      0x658 ../../../../../ss/bin/rmd-linux-elf/lib/libc.a(lib_a-fvwrite.o)
                0x0000000000020c90                __sfvwrite_r
 .text          0x00000000000212e8       0x98 ../../../../../ss/bin/rmd-linux-elf/lib/libc.a(lib_a-isattyr.o)
                0x00000000000212e8                _isatty_r
 .text          0x0000000000021380       0xa8 ../../../../../ss/bin/rmd-linux-elf/lib/libc.a(lib_a-lseekr.o)
                0x0000000000021380                _lseek_r
 .text          0x0000000000021428       0x80 ../../../../../ss/bin/rmd-linux-elf/lib/libc.a(lib_a-memmove.o)
                0x0000000000021428                memmove
 .text          0x00000000000214a8       0xa0 ../../../../../ss/bin/rmd-linux-elf/lib/libc.a(lib_a-readr.o)
                0x00000000000214a8                _read_r
 .text          0x0000000000021548      0x3c8 ../../../../../ss/bin/rmd-linux-elf/lib/libc.a(lib_a-reent.o)
                0x0000000000021548                cleanup_glue
                0x00000000000215c0                _reclaim_reent
                0x0000000000021840                _wrapup_reent
 .text          0x0000000000021910      0x2b8 ../../../../../ss/bin/rmd-linux-elf/lib/libc.a(lib_a-wbuf.o)
                0x0000000000021910                __swbuf_r
                0x0000000000021b74                __swbuf
 .text          0x0000000000021bc8      0x160 ../../../../../ss/bin/rmd-linux-elf/lib/libc.a(lib_a-wcrtomb.o)
                0x0000000000021bc8                _wcrtomb_r
                0x0000000000021cd4                wcrtomb
 .text          0x0000000000021d28       0xe0 ../../../../../ss/bin/rmd-linux-elf/lib/libc.a(lib_a-wctomb_r.o)
                0x0000000000021d28                __ascii_wctomb
                0x0000000000021d64                _wctomb_r
 .text          0x0000000000021e08       0x48 ../../../../../ss/bin/rmd-linux-elf/lib/libm.a(lib_a-s_fabs.o)
                0x0000000000021e08                fabs
 .text          0x0000000000021e50      0x128 ../../../../../ss/bin/rmd-linux-elf/lib/libm.a(lib_a-sf_ceil.o)
                0x0000000000021e50                ceilf
 .text          0x0000000000021f78       0x40 ../../../../../ss/bin/rmd-linux-elf/lib/libm.a(lib_a-sf_fabs.o)
                0x0000000000021f78                fabsf
 .text          0x0000000000021fb8      0x130 ../../../../../ss/bin/rmd-linux-elf/lib/libm.a(lib_a-sf_floor.o)
                0x0000000000021fb8                floorf
 .text          0x00000000000220e8       0x18 ../../../../../ss/bin/rmd-linux-elf/lib/libm.a(lib_a-sf_sincos.o)
                0x00000000000220e8                sincosf
 .text          0x0000000000022100      0x150 ../../../../../ss/bin/rmd-linux-elf/lib/libm.a(lib_a-sf_sin.o)
                0x0000000000022100                sinf
 .text          0x0000000000022250      0x150 ../../../../../ss/bin/rmd-linux-elf/lib/libm.a(lib_a-s_round.o)
                0x0000000000022250                round
 .text          0x00000000000223a0      0x1d0 ../../../../../ss/bin/rmd-linux-elf/lib/libm.a(lib_a-wf_fmod.o)
                0x00000000000223a0                fmodf
 .text          0x0000000000022570      0x1a0 ../../../../../ss/bin/rmd-linux-elf/lib/libm.a(lib_a-wf_sqrt.o)
                0x0000000000022570                sqrtf
 .text          0x0000000000022710      0x198 ../../../../../ss/bin/rmd-linux-elf/lib/libm.a(lib_a-w_sqrt.o)
                0x0000000000022710                sqrt
 .text          0x00000000000228a8      0x2a8 ../../../../../ss/bin/rmd-linux-elf/lib/libm.a(lib_a-ef_fmod.o)
                0x00000000000228a8                __ieee754_fmodf
 .text          0x0000000000022b50      0x400 ../../../../../ss/bin/rmd-linux-elf/lib/libm.a(lib_a-ef_rem_pio2.o)
                0x0000000000022b50                __ieee754_rem_pio2f
 .text          0x0000000000022f50      0x188 ../../../../../ss/bin/rmd-linux-elf/lib/libm.a(lib_a-ef_sqrt.o)
                0x0000000000022f50                __ieee754_sqrtf
 .text          0x00000000000230d8      0x2e8 ../../../../../ss/bin/rmd-linux-elf/lib/libm.a(lib_a-e_sqrt.o)
                0x00000000000230d8                __ieee754_sqrt
 .text          0x00000000000233c0      0x130 ../../../../../ss/bin/rmd-linux-elf/lib/libm.a(lib_a-kf_cos.o)
                0x00000000000233c0                __kernel_cosf
 .text          0x00000000000234f0      0x9a8 ../../../../../ss/bin/rmd-linux-elf/lib/libm.a(lib_a-kf_rem_pio2.o)
                0x00000000000234f0                __kernel_rem_pio2f
 .text          0x0000000000023e98       0xf8 ../../../../../ss/bin/rmd-linux-elf/lib/libm.a(lib_a-kf_sin.o)
                0x0000000000023e98                __kernel_sinf
 .text          0x0000000000023f90      0x1a0 ../../../../../ss/bin/rmd-linux-elf/lib/libm.a(lib_a-sf_scalbn.o)
                0x0000000000023f90                scalbnf
 .text          0x0000000000024130        0x0 ../../../../../ss/bin/rmd-linux-elf/lib/libm.a(lib_a-s_lib_ver.o)
 .text          0x0000000000024130        0x8 ../../../../../ss/bin/rmd-linux-elf/lib/libm.a(lib_a-s_matherr.o)
                0x0000000000024130                matherr
 .text          0x0000000000024138       0x58 ../../../../../ss/bin/rmd-linux-elf/lib/libm.a(lib_a-sf_copysign.o)
                0x0000000000024138                copysignf
 .text          0x0000000000024190       0x28 ../../../../../ss/bin/rmd-linux-elf/lib/libgloss_lxe.a(close.o)
                0x0000000000024190                _close
 .text          0x00000000000241b8       0x28 ../../../../../ss/bin/rmd-linux-elf/lib/libgloss_lxe.a(fstat.o)
                0x00000000000241b8                _fstat
 .text          0x00000000000241e0       0x20 ../../../../../ss/bin/rmd-linux-elf/lib/libgloss_lxe.a(isatty.o)
                0x00000000000241e0                _isatty
 .text          0x0000000000024200       0x28 ../../../../../ss/bin/rmd-linux-elf/lib/libgloss_lxe.a(lseek.o)
                0x0000000000024200                _lseek
 .text          0x0000000000024228       0x28 ../../../../../ss/bin/rmd-linux-elf/lib/libgloss_lxe.a(read.o)
                0x0000000000024228                _read
 .text          0x0000000000024250       0x18 ../../../../../ss/bin/rmd-linux-elf/lib/libgloss_lxe.a(write.o)
                0x0000000000024250                _write
 .text          0x0000000000024268       0x10 ../../../../../ss/bin/rmd-linux-elf/lib/libgloss_lxe.a(_exit.o)
                0x0000000000024268                _exit
 .text          0x0000000000024278       0xb8 ../../../../../ss/bin/rmd-linux-elf/lib/libgloss_lxe.a(malloc.o)
                0x0000000000024278                malloc
                0x00000000000242d4                free
 .text          0x0000000000024330      0x348 ../../../../../ss/bin/rmd-linux-elf/lib/libgloss_lxe.a(mallocr.o)
                0x0000000000024330                _malloc_r
                0x00000000000243dc                _free_r
                0x0000000000024488                _calloc_r
                0x00000000000245b0                _realloc_r
 .text          0x0000000000024678       0x18 ../../../../../ss/bin/rmd-linux-elf/lib/libc.a(lib_a-errno.o)
                0x0000000000024678                __errno
 *(.fini)
                0x0000000000024690                etext = ABSOLUTE (.)
                0x0000000000024690                _etext = ABSOLUTE (.)

.rodata_local   0x0000000000024690     0x3f10
 *(.rodata_local*)
 .rodata_local.cst4
                0x0000000000024690        0x4 main.o
 .rodata_local  0x0000000000024694      0xc2a main.o
 *fill*         0x00000000000252be        0x2 00
 .rodata_local.cst4
                0x00000000000252c0        0x8 inputs.o
                                          0xc (size before relaxing)
 .rodata_local  0x00000000000252c8      0x175 inputs.o
 .rodata_local  0x000000000002543d      0x295 image_formation.o
 *fill*         0x00000000000256d2        0x6 00
 .rodata_local.cst8
                0x00000000000256d8       0x20 back_proj.o
 .rodata_local  0x00000000000256f8      0x319 back_proj.o
 .rodata_local  0x0000000000025a11      0x7f1 registration.o
 .rodata_local  0x0000000000026202      0x29a ccd.o
 .rodata_local.cst4
                0x000000000002649c        0x4 cfar.o
 .rodata_local  0x00000000000264a0      0x3a5 cfar.o
 *fill*         0x0000000000026845        0x3 00
 .rodata_local.cst4
                0x0000000000026848        0x4 sinc.o
 .rodata_local  0x000000000002684c       0x49 fftw3.o
 .rodata_local  0x0000000000026895       0x56 rag_rmd.o
 .rodata_local  0x00000000000268eb       0xc8 ../../../../../ss/runtime/libxe/libxert.a(xe-codelet.o)
 .rodata_local  0x00000000000269b3       0x55 ../../../../../ss/runtime/libxe/libxert.a(codelet-main.o)
 .rodata_local  0x0000000000026a08       0xf6 ../../../../../ss/runtime/libxe/libxert.a(xe-allocators.o)
 .rodata_local  0x0000000000026afe      0x11d ../../../../../ss/runtime/libxe/libxert.a(xe-memory.o)
 .rodata_local  0x0000000000026c1b       0xa4 ../../../../../ss/runtime/libxe/libxert.a(xe-tlsf-allocator.o)
 .rodata_local  0x0000000000026cbf       0xd8 ../../../../../ss/runtime/libxe/libxert.a(xe-guid-allocator.o)
 .rodata_local  0x0000000000026d97      0x1b1 ../../../../../ss/runtime/libxe/libxert.a(xe-dumper.o)
 .rodata_local  0x0000000000026f48       0x10 ../../../../../ss/bin/rmd-linux-elf/lib/libc.a(lib_a-impure.o)
                0x0000000000026f48                _global_impure_ptr
 .rodata_local  0x0000000000026f58      0xa48 ../../../../../ss/bin/rmd-linux-elf/lib/libc.a(lib_a-strerror.o)
 .rodata_local  0x00000000000279a0      0x338 ../../../../../ss/bin/rmd-linux-elf/lib/libc.a(lib_a-vfprintf.o)
 .rodata_local.cst8
                0x0000000000027cd8       0x18 ../../../../../ss/bin/rmd-linux-elf/lib/libc.a(lib_a-dtoa.o)
 .rodata_local  0x0000000000027cf0       0x40 ../../../../../ss/bin/rmd-linux-elf/lib/libc.a(lib_a-dtoa.o)
 .rodata_local  0x0000000000027d30       0xa8 ../../../../../ss/bin/rmd-linux-elf/lib/libc.a(lib_a-findfp.o)
                0x0000000000027d30                __sf_fake_stdin
                0x0000000000027d68                __sf_fake_stdout
                0x0000000000027da0                __sf_fake_stderr
 .rodata_local  0x0000000000027dd8        0xb ../../../../../ss/bin/rmd-linux-elf/lib/libc.a(lib_a-locale.o)
 *fill*         0x0000000000027de3        0x5 00
 .rodata_local  0x0000000000027de8      0x128 ../../../../../ss/bin/rmd-linux-elf/lib/libc.a(lib_a-mprec.o)
                0x0000000000027df8                __mprec_tens
                0x0000000000027ec0                __mprec_bigtens
                0x0000000000027ee8                __mprec_tinytens
 .rodata_local  0x0000000000027f10      0x1e0 ../../../../../ss/bin/rmd-linux-elf/lib/libc.a(lib_a-vfiprintf.o)
 .rodata_local.cst4
                0x00000000000280f0        0x4 ../../../../../ss/bin/rmd-linux-elf/lib/libm.a(lib_a-sf_ceil.o)
 .rodata_local.cst4
                0x0000000000000000        0x4 ../../../../../ss/bin/rmd-linux-elf/lib/libm.a(lib_a-sf_floor.o)
 .rodata_local  0x00000000000280f4        0x6 ../../../../../ss/bin/rmd-linux-elf/lib/libm.a(lib_a-wf_fmod.o)
 *fill*         0x00000000000280fa        0x6 00
 .rodata_local.cst16
                0x0000000000028100       0x10 ../../../../../ss/bin/rmd-linux-elf/lib/libm.a(lib_a-wf_sqrt.o)
 .rodata_local  0x0000000000028110        0x6 ../../../../../ss/bin/rmd-linux-elf/lib/libm.a(lib_a-wf_sqrt.o)
 .rodata_local.cst16
                0x0000000000000000       0x10 ../../../../../ss/bin/rmd-linux-elf/lib/libm.a(lib_a-w_sqrt.o)
 .rodata_local  0x0000000000028116        0x5 ../../../../../ss/bin/rmd-linux-elf/lib/libm.a(lib_a-w_sqrt.o)
 *fill*         0x000000000002811b        0x1 00
 .rodata_local  0x000000000002811c        0x8 ../../../../../ss/bin/rmd-linux-elf/lib/libm.a(lib_a-ef_fmod.o)
 .rodata_local.cst4
                0x0000000000028124       0x2c ../../../../../ss/bin/rmd-linux-elf/lib/libm.a(lib_a-ef_rem_pio2.o)
 .rodata_local  0x0000000000028150      0x398 ../../../../../ss/bin/rmd-linux-elf/lib/libm.a(lib_a-ef_rem_pio2.o)
 .rodata_local.cst4
                0x00000000000284e8       0x18 ../../../../../ss/bin/rmd-linux-elf/lib/libm.a(lib_a-kf_cos.o)
 .rodata_local  0x0000000000028500       0x38 ../../../../../ss/bin/rmd-linux-elf/lib/libm.a(lib_a-kf_rem_pio2.o)
 .rodata_local.cst4
                0x0000000000028538       0x1c ../../../../../ss/bin/rmd-linux-elf/lib/libm.a(lib_a-kf_sin.o)
 .rodata_local.cst4
                0x0000000000028554        0xc ../../../../../ss/bin/rmd-linux-elf/lib/libm.a(lib_a-sf_scalbn.o)
                                         0x10 (size before relaxing)
 .rodata_local  0x0000000000028560       0x40 ../../../../../ss/bin/rmd-linux-elf/lib/libgloss_lxe.a(mallocr.o)

.data_local     0x00000000000285a0      0x370
                0x00000000000285a0                . = ALIGN (0x8)
                0x00000000000285a0                _fdata_local = ABSOLUTE (.)
 *(.data_local)
 .data_local    0x00000000000285a0        0x0 ../../../../../ss/runtime/libxe/xe-tls.o
 .data_local    0x00000000000285a0        0x8 ../../../../../ss/bin/rmd-linux-elf/lib/crt0_lxe.o
                0x00000000000285a0                rmd_crt_sp_base
 .data_local    0x00000000000285a8        0x0 main.o
 .data_local    0x00000000000285a8        0x0 inputs.o
 .data_local    0x00000000000285a8        0x0 image_formation.o
 .data_local    0x00000000000285a8        0x0 digspot.o
 .data_local    0x00000000000285a8        0x0 back_proj.o
 .data_local    0x00000000000285a8        0x0 registration.o
 .data_local    0x00000000000285a8        0x0 ccd.o
 .data_local    0x00000000000285a8        0x0 cfar.o
 .data_local    0x00000000000285a8        0x0 sinc_interp.o
 .data_local    0x00000000000285a8        0x0 sinc.o
 .data_local    0x00000000000285a8        0x0 fftw3.o
 .data_local    0x00000000000285a8       0x18 rag_rmd.o
 .data_local    0x00000000000285c0        0x0 ./Data.o
 .data_local    0x00000000000285c0        0x0 ./PlatformPosition.o
 .data_local    0x00000000000285c0        0x0 ./PulseTransmissionTime.o
 .data_local    0x00000000000285c0        0x0 ../../../../../ss/runtime/libxe/libxert.a(xe-codelet.o)
 .data_local    0x00000000000285c0        0x0 ../../../../../ss/runtime/libxe/libxert.a(xe-codelet-header.o)
 .data_local    0x00000000000285c0       0x20 ../../../../../ss/runtime/libxe/libxert.a(xe-console.o)
 .data_local    0x00000000000285e0        0x0 ../../../../../ss/runtime/libxe/libxert.a(codelet-main.o)
 .data_local    0x00000000000285e0       0x80 ../../../../../ss/runtime/libxe/libxert.a(xe-allocators.o)
                0x00000000000285e0                xe_pg_routines
 .data_local    0x0000000000028660       0x20 ../../../../../ss/runtime/libxe/libxert.a(xe-memory.o)
                0x0000000000028660                xe_error_codes
 .data_local    0x0000000000028680        0x0 ../../../../../ss/runtime/libxe/libxert.a(xe-tlsf-allocator.o)
 .data_local    0x0000000000028680        0x0 ../../../../../ss/runtime/libxe/libxert.a(xe-guid-allocator.o)
 .data_local    0x0000000000028680        0x0 ../../../../../ss/runtime/libxe/libxert.a(xe-utils.o)
 .data_local    0x0000000000028680        0x0 ../../../../../ss/runtime/libxe/libxert.a(xe-dumper.o)
 .data_local    0x0000000000028680        0x0 ../../../../../ss/bin/rmd-linux-elf/lib/libc.a(lib_a-exit.o)
 .data_local    0x0000000000028680        0x0 ../../../../../ss/bin/rmd-linux-elf/lib/libc.a(lib_a-fprintf.o)
 .data_local    0x0000000000028680      0x1d8 ../../../../../ss/bin/rmd-linux-elf/lib/libc.a(lib_a-impure.o)
                0x0000000000028850                _impure_ptr
 .data_local    0x0000000000028858        0x0 ../../../../../ss/bin/rmd-linux-elf/lib/libc.a(lib_a-memcpy.o)
 .data_local    0x0000000000028858        0x0 ../../../../../ss/bin/rmd-linux-elf/lib/libc.a(lib_a-memset.o)
 .data_local    0x0000000000028858        0x0 ../../../../../ss/bin/rmd-linux-elf/lib/libc.a(lib_a-printf.o)
 .data_local    0x0000000000028858        0x0 ../../../../../ss/bin/rmd-linux-elf/lib/libc.a(lib_a-strerror.o)
 .data_local    0x0000000000028858        0x0 ../../../../../ss/bin/rmd-linux-elf/lib/libc.a(lib_a-u_strerr.o)
 .data_local    0x0000000000028858        0x0 ../../../../../ss/bin/rmd-linux-elf/lib/libc.a(lib_a-vfprintf.o)
 .data_local    0x0000000000028858        0x0 ../../../../../ss/bin/rmd-linux-elf/lib/libc.a(lib_a-wsetup.o)
 .data_local    0x0000000000028858        0x0 ../../../../../ss/bin/rmd-linux-elf/lib/libc.a(lib_a-__call_atexit.o)
 .data_local    0x0000000000028858        0x0 ../../../../../ss/bin/rmd-linux-elf/lib/libc.a(lib_a-dtoa.o)
 .data_local    0x0000000000028858        0x0 ../../../../../ss/bin/rmd-linux-elf/lib/libc.a(lib_a-fflush.o)
 .data_local    0x0000000000028858        0x0 ../../../../../ss/bin/rmd-linux-elf/lib/libc.a(lib_a-findfp.o)
 .data_local    0x0000000000028858        0x0 ../../../../../ss/bin/rmd-linux-elf/lib/libc.a(lib_a-fwalk.o)
 .data_local    0x0000000000028858       0xa8 ../../../../../ss/bin/rmd-linux-elf/lib/libc.a(lib_a-locale.o)
                0x0000000000028858                __mb_cur_max
 .data_local    0x0000000000028900        0x0 ../../../../../ss/bin/rmd-linux-elf/lib/libc.a(lib_a-makebuf.o)
 .data_local    0x0000000000028900        0x0 ../../../../../ss/bin/rmd-linux-elf/lib/libc.a(lib_a-memchr.o)
 .data_local    0x0000000000028900        0x0 ../../../../../ss/bin/rmd-linux-elf/lib/libc.a(lib_a-mprec.o)
 .data_local    0x0000000000028900        0x0 ../../../../../ss/bin/rmd-linux-elf/lib/libc.a(lib_a-stdio.o)
 .data_local    0x0000000000028900        0x0 ../../../../../ss/bin/rmd-linux-elf/lib/libc.a(lib_a-strcmp.o)
 .data_local    0x0000000000028900        0x0 ../../../../../ss/bin/rmd-linux-elf/lib/libc.a(lib_a-strlen.o)
 .data_local    0x0000000000028900        0x0 ../../../../../ss/bin/rmd-linux-elf/lib/libc.a(lib_a-vfiprintf.o)
 .data_local    0x0000000000028900        0x0 ../../../../../ss/bin/rmd-linux-elf/lib/libc.a(lib_a-writer.o)
 .data_local    0x0000000000028900        0x0 ../../../../../ss/bin/rmd-linux-elf/lib/libc.a(lib_a-closer.o)
 .data_local    0x0000000000028900        0x0 ../../../../../ss/bin/rmd-linux-elf/lib/libc.a(lib_a-fclose.o)
 .data_local    0x0000000000028900        0x0 ../../../../../ss/bin/rmd-linux-elf/lib/libc.a(lib_a-fputwc.o)
 .data_local    0x0000000000028900        0x0 ../../../../../ss/bin/rmd-linux-elf/lib/libc.a(lib_a-fstatr.o)
 .data_local    0x0000000000028900        0x0 ../../../../../ss/bin/rmd-linux-elf/lib/libc.a(lib_a-fvwrite.o)
 .data_local    0x0000000000028900        0x0 ../../../../../ss/bin/rmd-linux-elf/lib/libc.a(lib_a-isattyr.o)
 .data_local    0x0000000000028900        0x0 ../../../../../ss/bin/rmd-linux-elf/lib/libc.a(lib_a-lseekr.o)
 .data_local    0x0000000000028900        0x0 ../../../../../ss/bin/rmd-linux-elf/lib/libc.a(lib_a-memmove.o)
 .data_local    0x0000000000028900        0x0 ../../../../../ss/bin/rmd-linux-elf/lib/libc.a(lib_a-readr.o)
 .data_local    0x0000000000028900        0x0 ../../../../../ss/bin/rmd-linux-elf/lib/libc.a(lib_a-reent.o)
 .data_local    0x0000000000028900        0x0 ../../../../../ss/bin/rmd-linux-elf/lib/libc.a(lib_a-wbuf.o)
 .data_local    0x0000000000028900        0x0 ../../../../../ss/bin/rmd-linux-elf/lib/libc.a(lib_a-wcrtomb.o)
 .data_local    0x0000000000028900        0x8 ../../../../../ss/bin/rmd-linux-elf/lib/libc.a(lib_a-wctomb_r.o)
                0x0000000000028900                __wctomb
 .data_local    0x0000000000028908        0x0 ../../../../../ss/bin/rmd-linux-elf/lib/libm.a(lib_a-s_fabs.o)
 .data_local    0x0000000000028908        0x0 ../../../../../ss/bin/rmd-linux-elf/lib/libm.a(lib_a-sf_ceil.o)
 .data_local    0x0000000000028908        0x0 ../../../../../ss/bin/rmd-linux-elf/lib/libm.a(lib_a-sf_fabs.o)
 .data_local    0x0000000000028908        0x0 ../../../../../ss/bin/rmd-linux-elf/lib/libm.a(lib_a-sf_floor.o)
 .data_local    0x0000000000028908        0x0 ../../../../../ss/bin/rmd-linux-elf/lib/libm.a(lib_a-sf_sincos.o)
 .data_local    0x0000000000028908        0x0 ../../../../../ss/bin/rmd-linux-elf/lib/libm.a(lib_a-sf_sin.o)
 .data_local    0x0000000000028908        0x0 ../../../../../ss/bin/rmd-linux-elf/lib/libm.a(lib_a-s_round.o)
 .data_local    0x0000000000028908        0x0 ../../../../../ss/bin/rmd-linux-elf/lib/libm.a(lib_a-wf_fmod.o)
 .data_local    0x0000000000028908        0x0 ../../../../../ss/bin/rmd-linux-elf/lib/libm.a(lib_a-wf_sqrt.o)
 .data_local    0x0000000000028908        0x0 ../../../../../ss/bin/rmd-linux-elf/lib/libm.a(lib_a-w_sqrt.o)
 .data_local    0x0000000000028908        0x0 ../../../../../ss/bin/rmd-linux-elf/lib/libm.a(lib_a-ef_fmod.o)
 .data_local    0x0000000000028908        0x0 ../../../../../ss/bin/rmd-linux-elf/lib/libm.a(lib_a-ef_rem_pio2.o)
 .data_local    0x0000000000028908        0x0 ../../../../../ss/bin/rmd-linux-elf/lib/libm.a(lib_a-ef_sqrt.o)
 .data_local    0x0000000000028908        0x0 ../../../../../ss/bin/rmd-linux-elf/lib/libm.a(lib_a-e_sqrt.o)
 .data_local    0x0000000000028908        0x0 ../../../../../ss/bin/rmd-linux-elf/lib/libm.a(lib_a-kf_cos.o)
 .data_local    0x0000000000028908        0x0 ../../../../../ss/bin/rmd-linux-elf/lib/libm.a(lib_a-kf_rem_pio2.o)
 .data_local    0x0000000000028908        0x0 ../../../../../ss/bin/rmd-linux-elf/lib/libm.a(lib_a-kf_sin.o)
 .data_local    0x0000000000028908        0x0 ../../../../../ss/bin/rmd-linux-elf/lib/libm.a(lib_a-sf_scalbn.o)
 .data_local    0x0000000000028908        0x8 ../../../../../ss/bin/rmd-linux-elf/lib/libm.a(lib_a-s_lib_ver.o)
                0x0000000000028908                __fdlib_version
 .data_local    0x0000000000028910        0x0 ../../../../../ss/bin/rmd-linux-elf/lib/libm.a(lib_a-s_matherr.o)
 .data_local    0x0000000000028910        0x0 ../../../../../ss/bin/rmd-linux-elf/lib/libm.a(lib_a-sf_copysign.o)
 .data_local    0x0000000000028910        0x0 ../../../../../ss/bin/rmd-linux-elf/lib/libgloss_lxe.a(close.o)
 .data_local    0x0000000000028910        0x0 ../../../../../ss/bin/rmd-linux-elf/lib/libgloss_lxe.a(fstat.o)
 .data_local    0x0000000000028910        0x0 ../../../../../ss/bin/rmd-linux-elf/lib/libgloss_lxe.a(isatty.o)
 .data_local    0x0000000000028910        0x0 ../../../../../ss/bin/rmd-linux-elf/lib/libgloss_lxe.a(lseek.o)
 .data_local    0x0000000000028910        0x0 ../../../../../ss/bin/rmd-linux-elf/lib/libgloss_lxe.a(read.o)
 .data_local    0x0000000000028910        0x0 ../../../../../ss/bin/rmd-linux-elf/lib/libgloss_lxe.a(write.o)
 .data_local    0x0000000000028910        0x0 ../../../../../ss/bin/rmd-linux-elf/lib/libgloss_lxe.a(_exit.o)
 .data_local    0x0000000000028910        0x0 ../../../../../ss/bin/rmd-linux-elf/lib/libgloss_lxe.a(malloc.o)
 .data_local    0x0000000000028910        0x0 ../../../../../ss/bin/rmd-linux-elf/lib/libgloss_lxe.a(mallocr.o)
 .data_local    0x0000000000028910        0x0 ../../../../../ss/bin/rmd-linux-elf/lib/libc.a(lib_a-errno.o)
                0x0000000000028910                edata_local = ABSOLUTE (.)
                0x0000000000028910                _edata_local = ABSOLUTE (.)

.bss_local      0x0000000000028910      0x1f8
                0x0000000000028910                . = ALIGN (0x8)
                0x0000000000028910                _fbss_local = ABSOLUTE (.)
 *(.bss_local)
 .bss_local     0x0000000000028910        0x0 ../../../../../ss/bin/rmd-linux-elf/lib/crt0_lxe.o
 .bss_local     0x0000000000028910        0x8 main.o
 .bss_local     0x0000000000028918        0x0 inputs.o
 .bss_local     0x0000000000028918        0x0 image_formation.o
 .bss_local     0x0000000000028918        0x0 digspot.o
 .bss_local     0x0000000000028918        0x8 back_proj.o
 .bss_local     0x0000000000028920        0x8 registration.o
 .bss_local     0x0000000000028928        0x8 ccd.o
 .bss_local     0x0000000000028930        0x8 cfar.o
 .bss_local     0x0000000000028938        0x0 sinc_interp.o
 .bss_local     0x0000000000028938        0x0 sinc.o
 .bss_local     0x0000000000028938        0x0 fftw3.o
 .bss_local     0x0000000000028938        0x0 rag_rmd.o
 .bss_local     0x0000000000028938        0x0 ./Data.o
 .bss_local     0x0000000000028938        0x0 ./PlatformPosition.o
 .bss_local     0x0000000000028938        0x0 ./PulseTransmissionTime.o
 .bss_local     0x0000000000028938        0x0 ../../../../../ss/runtime/libxe/libxert.a(xe-codelet.o)
 .bss_local     0x0000000000028938       0x50 ../../../../../ss/runtime/libxe/libxert.a(xe-codelet-header.o)
                0x0000000000028938                myXE_struct
 .bss_local     0x0000000000028988       0x80 ../../../../../ss/runtime/libxe/libxert.a(xe-console.o)
 .bss_local     0x0000000000028a08        0x0 ../../../../../ss/runtime/libxe/libxert.a(codelet-main.o)
 .bss_local     0x0000000000028a08       0xe8 ../../../../../ss/runtime/libxe/libxert.a(xe-allocators.o)
                0x0000000000028a08                g_offload_start
                0x0000000000028a10                g_offload_count
                0x0000000000028a14                g_offload_max
                0x0000000000028a18                g_acquired_start
                0x0000000000028a20                g_acquired_count
                0x0000000000028a24                g_acquired_max
                0x0000000000028a28                xe_playgrounds
                0x0000000000028ae8                xe_playgrounds_from_ce
 .bss_local     0x0000000000028af0        0x0 ../../../../../ss/runtime/libxe/libxert.a(xe-memory.o)
 .bss_local     0x0000000000028af0        0x0 ../../../../../ss/runtime/libxe/libxert.a(xe-tlsf-allocator.o)
 .bss_local     0x0000000000028af0        0x0 ../../../../../ss/runtime/libxe/libxert.a(xe-guid-allocator.o)
 .bss_local     0x0000000000028af0        0x0 ../../../../../ss/runtime/libxe/libxert.a(xe-utils.o)
 .bss_local     0x0000000000028af0        0x0 ../../../../../ss/runtime/libxe/libxert.a(xe-dumper.o)
 .bss_local     0x0000000000028af0        0x0 ../../../../../ss/bin/rmd-linux-elf/lib/libc.a(lib_a-exit.o)
 .bss_local     0x0000000000028af0        0x0 ../../../../../ss/bin/rmd-linux-elf/lib/libc.a(lib_a-fprintf.o)
 .bss_local     0x0000000000028af0        0x0 ../../../../../ss/bin/rmd-linux-elf/lib/libc.a(lib_a-impure.o)
 .bss_local     0x0000000000028af0        0x0 ../../../../../ss/bin/rmd-linux-elf/lib/libc.a(lib_a-memcpy.o)
 .bss_local     0x0000000000028af0        0x0 ../../../../../ss/bin/rmd-linux-elf/lib/libc.a(lib_a-memset.o)
 .bss_local     0x0000000000028af0        0x0 ../../../../../ss/bin/rmd-linux-elf/lib/libc.a(lib_a-printf.o)
 .bss_local     0x0000000000028af0        0x0 ../../../../../ss/bin/rmd-linux-elf/lib/libc.a(lib_a-strerror.o)
 .bss_local     0x0000000000028af0        0x0 ../../../../../ss/bin/rmd-linux-elf/lib/libc.a(lib_a-u_strerr.o)
 .bss_local     0x0000000000028af0        0x0 ../../../../../ss/bin/rmd-linux-elf/lib/libc.a(lib_a-vfprintf.o)
 .bss_local     0x0000000000028af0        0x0 ../../../../../ss/bin/rmd-linux-elf/lib/libc.a(lib_a-wsetup.o)
 .bss_local     0x0000000000028af0        0x0 ../../../../../ss/bin/rmd-linux-elf/lib/libc.a(lib_a-__call_atexit.o)
 .bss_local     0x0000000000028af0        0x0 ../../../../../ss/bin/rmd-linux-elf/lib/libc.a(lib_a-dtoa.o)
 .bss_local     0x0000000000028af0        0x0 ../../../../../ss/bin/rmd-linux-elf/lib/libc.a(lib_a-fflush.o)
 .bss_local     0x0000000000028af0        0x0 ../../../../../ss/bin/rmd-linux-elf/lib/libc.a(lib_a-findfp.o)
 .bss_local     0x0000000000028af0        0x0 ../../../../../ss/bin/rmd-linux-elf/lib/libc.a(lib_a-fwalk.o)
 .bss_local     0x0000000000028af0       0x10 ../../../../../ss/bin/rmd-linux-elf/lib/libc.a(lib_a-locale.o)
                0x0000000000028af0                __nlocale_changed
                0x0000000000028af4                __mlocale_changed
                0x0000000000028af8                _PathLocale
 .bss_local     0x0000000000028b00        0x0 ../../../../../ss/bin/rmd-linux-elf/lib/libc.a(lib_a-makebuf.o)
 .bss_local     0x0000000000028b00        0x0 ../../../../../ss/bin/rmd-linux-elf/lib/libc.a(lib_a-memchr.o)
 .bss_local     0x0000000000028b00        0x0 ../../../../../ss/bin/rmd-linux-elf/lib/libc.a(lib_a-mprec.o)
 .bss_local     0x0000000000028b00        0x0 ../../../../../ss/bin/rmd-linux-elf/lib/libc.a(lib_a-stdio.o)
 .bss_local     0x0000000000028b00        0x0 ../../../../../ss/bin/rmd-linux-elf/lib/libc.a(lib_a-strcmp.o)
 .bss_local     0x0000000000028b00        0x0 ../../../../../ss/bin/rmd-linux-elf/lib/libc.a(lib_a-strlen.o)
 .bss_local     0x0000000000028b00        0x0 ../../../../../ss/bin/rmd-linux-elf/lib/libc.a(lib_a-vfiprintf.o)
 .bss_local     0x0000000000028b00        0x0 ../../../../../ss/bin/rmd-linux-elf/lib/libc.a(lib_a-writer.o)
 .bss_local     0x0000000000028b00        0x0 ../../../../../ss/bin/rmd-linux-elf/lib/libc.a(lib_a-closer.o)
 .bss_local     0x0000000000028b00        0x0 ../../../../../ss/bin/rmd-linux-elf/lib/libc.a(lib_a-fclose.o)
 .bss_local     0x0000000000028b00        0x0 ../../../../../ss/bin/rmd-linux-elf/lib/libc.a(lib_a-fputwc.o)
 .bss_local     0x0000000000028b00        0x0 ../../../../../ss/bin/rmd-linux-elf/lib/libc.a(lib_a-fstatr.o)
 .bss_local     0x0000000000028b00        0x0 ../../../../../ss/bin/rmd-linux-elf/lib/libc.a(lib_a-fvwrite.o)
 .bss_local     0x0000000000028b00        0x0 ../../../../../ss/bin/rmd-linux-elf/lib/libc.a(lib_a-isattyr.o)
 .bss_local     0x0000000000028b00        0x0 ../../../../../ss/bin/rmd-linux-elf/lib/libc.a(lib_a-lseekr.o)
 .bss_local     0x0000000000028b00        0x0 ../../../../../ss/bin/rmd-linux-elf/lib/libc.a(lib_a-memmove.o)
 .bss_local     0x0000000000028b00        0x0 ../../../../../ss/bin/rmd-linux-elf/lib/libc.a(lib_a-readr.o)
 .bss_local     0x0000000000028b00        0x8 ../../../../../ss/bin/rmd-linux-elf/lib/libc.a(lib_a-reent.o)
                0x0000000000028b00                errno
 .bss_local     0x0000000000028b08        0x0 ../../../../../ss/bin/rmd-linux-elf/lib/libc.a(lib_a-wbuf.o)
 .bss_local     0x0000000000028b08        0x0 ../../../../../ss/bin/rmd-linux-elf/lib/libc.a(lib_a-wcrtomb.o)
 .bss_local     0x0000000000028b08        0x0 ../../../../../ss/bin/rmd-linux-elf/lib/libc.a(lib_a-wctomb_r.o)
 .bss_local     0x0000000000028b08        0x0 ../../../../../ss/bin/rmd-linux-elf/lib/libm.a(lib_a-s_fabs.o)
 .bss_local     0x0000000000028b08        0x0 ../../../../../ss/bin/rmd-linux-elf/lib/libm.a(lib_a-sf_ceil.o)
 .bss_local     0x0000000000028b08        0x0 ../../../../../ss/bin/rmd-linux-elf/lib/libm.a(lib_a-sf_fabs.o)
 .bss_local     0x0000000000028b08        0x0 ../../../../../ss/bin/rmd-linux-elf/lib/libm.a(lib_a-sf_floor.o)
 .bss_local     0x0000000000028b08        0x0 ../../../../../ss/bin/rmd-linux-elf/lib/libm.a(lib_a-sf_sincos.o)
 .bss_local     0x0000000000028b08        0x0 ../../../../../ss/bin/rmd-linux-elf/lib/libm.a(lib_a-sf_sin.o)
 .bss_local     0x0000000000028b08        0x0 ../../../../../ss/bin/rmd-linux-elf/lib/libm.a(lib_a-s_round.o)
 .bss_local     0x0000000000028b08        0x0 ../../../../../ss/bin/rmd-linux-elf/lib/libm.a(lib_a-wf_fmod.o)
 .bss_local     0x0000000000028b08        0x0 ../../../../../ss/bin/rmd-linux-elf/lib/libm.a(lib_a-wf_sqrt.o)
 .bss_local     0x0000000000028b08        0x0 ../../../../../ss/bin/rmd-linux-elf/lib/libm.a(lib_a-w_sqrt.o)
 .bss_local     0x0000000000028b08        0x0 ../../../../../ss/bin/rmd-linux-elf/lib/libm.a(lib_a-ef_fmod.o)
 .bss_local     0x0000000000028b08        0x0 ../../../../../ss/bin/rmd-linux-elf/lib/libm.a(lib_a-ef_rem_pio2.o)
 .bss_local     0x0000000000028b08        0x0 ../../../../../ss/bin/rmd-linux-elf/lib/libm.a(lib_a-ef_sqrt.o)
 .bss_local     0x0000000000028b08        0x0 ../../../../../ss/bin/rmd-linux-elf/lib/libm.a(lib_a-e_sqrt.o)
 .bss_local     0x0000000000028b08        0x0 ../../../../../ss/bin/rmd-linux-elf/lib/libm.a(lib_a-kf_cos.o)
 .bss_local     0x0000000000028b08        0x0 ../../../../../ss/bin/rmd-linux-elf/lib/libm.a(lib_a-kf_rem_pio2.o)
 .bss_local     0x0000000000028b08        0x0 ../../../../../ss/bin/rmd-linux-elf/lib/libm.a(lib_a-kf_sin.o)
 .bss_local     0x0000000000028b08        0x0 ../../../../../ss/bin/rmd-linux-elf/lib/libm.a(lib_a-sf_scalbn.o)
 .bss_local     0x0000000000028b08        0x0 ../../../../../ss/bin/rmd-linux-elf/lib/libm.a(lib_a-s_lib_ver.o)
 .bss_local     0x0000000000028b08        0x0 ../../../../../ss/bin/rmd-linux-elf/lib/libm.a(lib_a-s_matherr.o)
 .bss_local     0x0000000000028b08        0x0 ../../../../../ss/bin/rmd-linux-elf/lib/libm.a(lib_a-sf_copysign.o)
 .bss_local     0x0000000000028b08        0x0 ../../../../../ss/bin/rmd-linux-elf/lib/libgloss_lxe.a(close.o)
 .bss_local     0x0000000000028b08        0x0 ../../../../../ss/bin/rmd-linux-elf/lib/libgloss_lxe.a(fstat.o)
 .bss_local     0x0000000000028b08        0x0 ../../../../../ss/bin/rmd-linux-elf/lib/libgloss_lxe.a(isatty.o)
 .bss_local     0x0000000000028b08        0x0 ../../../../../ss/bin/rmd-linux-elf/lib/libgloss_lxe.a(lseek.o)
 .bss_local     0x0000000000028b08        0x0 ../../../../../ss/bin/rmd-linux-elf/lib/libgloss_lxe.a(read.o)
 .bss_local     0x0000000000028b08        0x0 ../../../../../ss/bin/rmd-linux-elf/lib/libgloss_lxe.a(write.o)
 .bss_local     0x0000000000028b08        0x0 ../../../../../ss/bin/rmd-linux-elf/lib/libgloss_lxe.a(_exit.o)
 .bss_local     0x0000000000028b08        0x0 ../../../../../ss/bin/rmd-linux-elf/lib/libgloss_lxe.a(malloc.o)
 .bss_local     0x0000000000028b08        0x0 ../../../../../ss/bin/rmd-linux-elf/lib/libgloss_lxe.a(mallocr.o)
 .bss_local     0x0000000000028b08        0x0 ../../../../../ss/bin/rmd-linux-elf/lib/libc.a(lib_a-errno.o)
                0x0000000000028b08                ebss_local = ABSOLUTE (.)
                0x0000000000028b08                _ebss_local = ABSOLUTE (.)
                0x0000000000028b08                end_local = ABSOLUTE (.)
                0x0000000000028b08                _end_local = ABSOLUTE (.)

.rodata_block
 *(.rodata_block)

.data_block     0x0000000000200000        0x0
                0x0000000000200000                . = ALIGN (0x8)
                0x0000000000200000                _fdata_block = ABSOLUTE (.)
 *(.data_block)
 .data_block    0x0000000000200000        0x0 ../../../../../ss/runtime/libxe/xe-tls.o
 .data_block    0x0000000000200000        0x0 ../../../../../ss/bin/rmd-linux-elf/lib/crt0_lxe.o
 .data_block    0x0000000000200000        0x0 main.o
 .data_block    0x0000000000200000        0x0 inputs.o
 .data_block    0x0000000000200000        0x0 image_formation.o
 .data_block    0x0000000000200000        0x0 digspot.o
 .data_block    0x0000000000200000        0x0 back_proj.o
 .data_block    0x0000000000200000        0x0 registration.o
 .data_block    0x0000000000200000        0x0 ccd.o
 .data_block    0x0000000000200000        0x0 cfar.o
 .data_block    0x0000000000200000        0x0 sinc_interp.o
 .data_block    0x0000000000200000        0x0 sinc.o
 .data_block    0x0000000000200000        0x0 fftw3.o
 .data_block    0x0000000000200000        0x0 rag_rmd.o
 .data_block    0x0000000000200000        0x0 ./Data.o
 .data_block    0x0000000000200000        0x0 ./PlatformPosition.o
 .data_block    0x0000000000200000        0x0 ./PulseTransmissionTime.o
 .data_block    0x0000000000200000        0x0 ../../../../../ss/runtime/libxe/libxert.a(xe-codelet.o)
 .data_block    0x0000000000200000        0x0 ../../../../../ss/runtime/libxe/libxert.a(xe-codelet-header.o)
 .data_block    0x0000000000200000        0x0 ../../../../../ss/runtime/libxe/libxert.a(xe-console.o)
 .data_block    0x0000000000200000        0x0 ../../../../../ss/runtime/libxe/libxert.a(codelet-main.o)
 .data_block    0x0000000000200000        0x0 ../../../../../ss/runtime/libxe/libxert.a(xe-allocators.o)
 .data_block    0x0000000000200000        0x0 ../../../../../ss/runtime/libxe/libxert.a(xe-memory.o)
 .data_block    0x0000000000200000        0x0 ../../../../../ss/runtime/libxe/libxert.a(xe-tlsf-allocator.o)
 .data_block    0x0000000000200000        0x0 ../../../../../ss/runtime/libxe/libxert.a(xe-guid-allocator.o)
 .data_block    0x0000000000200000        0x0 ../../../../../ss/runtime/libxe/libxert.a(xe-utils.o)
 .data_block    0x0000000000200000        0x0 ../../../../../ss/runtime/libxe/libxert.a(xe-dumper.o)
 .data_block    0x0000000000200000        0x0 ../../../../../ss/bin/rmd-linux-elf/lib/libc.a(lib_a-exit.o)
 .data_block    0x0000000000200000        0x0 ../../../../../ss/bin/rmd-linux-elf/lib/libc.a(lib_a-fprintf.o)
 .data_block    0x0000000000200000        0x0 ../../../../../ss/bin/rmd-linux-elf/lib/libc.a(lib_a-impure.o)
 .data_block    0x0000000000200000        0x0 ../../../../../ss/bin/rmd-linux-elf/lib/libc.a(lib_a-memcpy.o)
 .data_block    0x0000000000200000        0x0 ../../../../../ss/bin/rmd-linux-elf/lib/libc.a(lib_a-memset.o)
 .data_block    0x0000000000200000        0x0 ../../../../../ss/bin/rmd-linux-elf/lib/libc.a(lib_a-printf.o)
 .data_block    0x0000000000200000        0x0 ../../../../../ss/bin/rmd-linux-elf/lib/libc.a(lib_a-strerror.o)
 .data_block    0x0000000000200000        0x0 ../../../../../ss/bin/rmd-linux-elf/lib/libc.a(lib_a-u_strerr.o)
 .data_block    0x0000000000200000        0x0 ../../../../../ss/bin/rmd-linux-elf/lib/libc.a(lib_a-vfprintf.o)
 .data_block    0x0000000000200000        0x0 ../../../../../ss/bin/rmd-linux-elf/lib/libc.a(lib_a-wsetup.o)
 .data_block    0x0000000000200000        0x0 ../../../../../ss/bin/rmd-linux-elf/lib/libc.a(lib_a-__call_atexit.o)
 .data_block    0x0000000000200000        0x0 ../../../../../ss/bin/rmd-linux-elf/lib/libc.a(lib_a-dtoa.o)
 .data_block    0x0000000000200000        0x0 ../../../../../ss/bin/rmd-linux-elf/lib/libc.a(lib_a-fflush.o)
 .data_block    0x0000000000200000        0x0 ../../../../../ss/bin/rmd-linux-elf/lib/libc.a(lib_a-findfp.o)
 .data_block    0x0000000000200000        0x0 ../../../../../ss/bin/rmd-linux-elf/lib/libc.a(lib_a-fwalk.o)
 .data_block    0x0000000000200000        0x0 ../../../../../ss/bin/rmd-linux-elf/lib/libc.a(lib_a-locale.o)
 .data_block    0x0000000000200000        0x0 ../../../../../ss/bin/rmd-linux-elf/lib/libc.a(lib_a-makebuf.o)
 .data_block    0x0000000000200000        0x0 ../../../../../ss/bin/rmd-linux-elf/lib/libc.a(lib_a-memchr.o)
 .data_block    0x0000000000200000        0x0 ../../../../../ss/bin/rmd-linux-elf/lib/libc.a(lib_a-mprec.o)
 .data_block    0x0000000000200000        0x0 ../../../../../ss/bin/rmd-linux-elf/lib/libc.a(lib_a-stdio.o)
 .data_block    0x0000000000200000        0x0 ../../../../../ss/bin/rmd-linux-elf/lib/libc.a(lib_a-strcmp.o)
 .data_block    0x0000000000200000        0x0 ../../../../../ss/bin/rmd-linux-elf/lib/libc.a(lib_a-strlen.o)
 .data_block    0x0000000000200000        0x0 ../../../../../ss/bin/rmd-linux-elf/lib/libc.a(lib_a-vfiprintf.o)
 .data_block    0x0000000000200000        0x0 ../../../../../ss/bin/rmd-linux-elf/lib/libc.a(lib_a-writer.o)
 .data_block    0x0000000000200000        0x0 ../../../../../ss/bin/rmd-linux-elf/lib/libc.a(lib_a-closer.o)
 .data_block    0x0000000000200000        0x0 ../../../../../ss/bin/rmd-linux-elf/lib/libc.a(lib_a-fclose.o)
 .data_block    0x0000000000200000        0x0 ../../../../../ss/bin/rmd-linux-elf/lib/libc.a(lib_a-fputwc.o)
 .data_block    0x0000000000200000        0x0 ../../../../../ss/bin/rmd-linux-elf/lib/libc.a(lib_a-fstatr.o)
 .data_block    0x0000000000200000        0x0 ../../../../../ss/bin/rmd-linux-elf/lib/libc.a(lib_a-fvwrite.o)
 .data_block    0x0000000000200000        0x0 ../../../../../ss/bin/rmd-linux-elf/lib/libc.a(lib_a-isattyr.o)
 .data_block    0x0000000000200000        0x0 ../../../../../ss/bin/rmd-linux-elf/lib/libc.a(lib_a-lseekr.o)
 .data_block    0x0000000000200000        0x0 ../../../../../ss/bin/rmd-linux-elf/lib/libc.a(lib_a-memmove.o)
 .data_block    0x0000000000200000        0x0 ../../../../../ss/bin/rmd-linux-elf/lib/libc.a(lib_a-readr.o)
 .data_block    0x0000000000200000        0x0 ../../../../../ss/bin/rmd-linux-elf/lib/libc.a(lib_a-reent.o)
 .data_block    0x0000000000200000        0x0 ../../../../../ss/bin/rmd-linux-elf/lib/libc.a(lib_a-wbuf.o)
 .data_block    0x0000000000200000        0x0 ../../../../../ss/bin/rmd-linux-elf/lib/libc.a(lib_a-wcrtomb.o)
 .data_block    0x0000000000200000        0x0 ../../../../../ss/bin/rmd-linux-elf/lib/libc.a(lib_a-wctomb_r.o)
 .data_block    0x0000000000200000        0x0 ../../../../../ss/bin/rmd-linux-elf/lib/libm.a(lib_a-s_fabs.o)
 .data_block    0x0000000000200000        0x0 ../../../../../ss/bin/rmd-linux-elf/lib/libm.a(lib_a-sf_ceil.o)
 .data_block    0x0000000000200000        0x0 ../../../../../ss/bin/rmd-linux-elf/lib/libm.a(lib_a-sf_fabs.o)
 .data_block    0x0000000000200000        0x0 ../../../../../ss/bin/rmd-linux-elf/lib/libm.a(lib_a-sf_floor.o)
 .data_block    0x0000000000200000        0x0 ../../../../../ss/bin/rmd-linux-elf/lib/libm.a(lib_a-sf_sincos.o)
 .data_block    0x0000000000200000        0x0 ../../../../../ss/bin/rmd-linux-elf/lib/libm.a(lib_a-sf_sin.o)
 .data_block    0x0000000000200000        0x0 ../../../../../ss/bin/rmd-linux-elf/lib/libm.a(lib_a-s_round.o)
 .data_block    0x0000000000200000        0x0 ../../../../../ss/bin/rmd-linux-elf/lib/libm.a(lib_a-wf_fmod.o)
 .data_block    0x0000000000200000        0x0 ../../../../../ss/bin/rmd-linux-elf/lib/libm.a(lib_a-wf_sqrt.o)
 .data_block    0x0000000000200000        0x0 ../../../../../ss/bin/rmd-linux-elf/lib/libm.a(lib_a-w_sqrt.o)
 .data_block    0x0000000000200000        0x0 ../../../../../ss/bin/rmd-linux-elf/lib/libm.a(lib_a-ef_fmod.o)
 .data_block    0x0000000000200000        0x0 ../../../../../ss/bin/rmd-linux-elf/lib/libm.a(lib_a-ef_rem_pio2.o)
 .data_block    0x0000000000200000        0x0 ../../../../../ss/bin/rmd-linux-elf/lib/libm.a(lib_a-ef_sqrt.o)
 .data_block    0x0000000000200000        0x0 ../../../../../ss/bin/rmd-linux-elf/lib/libm.a(lib_a-e_sqrt.o)
 .data_block    0x0000000000200000        0x0 ../../../../../ss/bin/rmd-linux-elf/lib/libm.a(lib_a-kf_cos.o)
 .data_block    0x0000000000200000        0x0 ../../../../../ss/bin/rmd-linux-elf/lib/libm.a(lib_a-kf_rem_pio2.o)
 .data_block    0x0000000000200000        0x0 ../../../../../ss/bin/rmd-linux-elf/lib/libm.a(lib_a-kf_sin.o)
 .data_block    0x0000000000200000        0x0 ../../../../../ss/bin/rmd-linux-elf/lib/libm.a(lib_a-sf_scalbn.o)
 .data_block    0x0000000000200000        0x0 ../../../../../ss/bin/rmd-linux-elf/lib/libm.a(lib_a-s_lib_ver.o)
 .data_block    0x0000000000200000        0x0 ../../../../../ss/bin/rmd-linux-elf/lib/libm.a(lib_a-s_matherr.o)
 .data_block    0x0000000000200000        0x0 ../../../../../ss/bin/rmd-linux-elf/lib/libm.a(lib_a-sf_copysign.o)
 .data_block    0x0000000000200000        0x0 ../../../../../ss/bin/rmd-linux-elf/lib/libgloss_lxe.a(close.o)
 .data_block    0x0000000000200000        0x0 ../../../../../ss/bin/rmd-linux-elf/lib/libgloss_lxe.a(fstat.o)
 .data_block    0x0000000000200000        0x0 ../../../../../ss/bin/rmd-linux-elf/lib/libgloss_lxe.a(isatty.o)
 .data_block    0x0000000000200000        0x0 ../../../../../ss/bin/rmd-linux-elf/lib/libgloss_lxe.a(lseek.o)
 .data_block    0x0000000000200000        0x0 ../../../../../ss/bin/rmd-linux-elf/lib/libgloss_lxe.a(read.o)
 .data_block    0x0000000000200000        0x0 ../../../../../ss/bin/rmd-linux-elf/lib/libgloss_lxe.a(write.o)
 .data_block    0x0000000000200000        0x0 ../../../../../ss/bin/rmd-linux-elf/lib/libgloss_lxe.a(_exit.o)
 .data_block    0x0000000000200000        0x0 ../../../../../ss/bin/rmd-linux-elf/lib/libgloss_lxe.a(malloc.o)
 .data_block    0x0000000000200000        0x0 ../../../../../ss/bin/rmd-linux-elf/lib/libgloss_lxe.a(mallocr.o)
 .data_block    0x0000000000200000        0x0 ../../../../../ss/bin/rmd-linux-elf/lib/libc.a(lib_a-errno.o)
                0x0000000000200000                edata_block = ABSOLUTE (.)
                0x0000000000200000                _edata_block = ABSOLUTE (.)

.bss_block      0x0000000000200000        0x0
                0x0000000000200000                . = ALIGN (0x8)
                0x0000000000200000                _fbss_block = ABSOLUTE (.)
 *(.bss_block)
 .bss_block     0x0000000000200000        0x0 ../../../../../ss/runtime/libxe/xe-tls.o
 .bss_block     0x0000000000200000        0x0 ../../../../../ss/bin/rmd-linux-elf/lib/crt0_lxe.o
 .bss_block     0x0000000000200000        0x0 main.o
 .bss_block     0x0000000000200000        0x0 inputs.o
 .bss_block     0x0000000000200000        0x0 image_formation.o
 .bss_block     0x0000000000200000        0x0 digspot.o
 .bss_block     0x0000000000200000        0x0 back_proj.o
 .bss_block     0x0000000000200000        0x0 registration.o
 .bss_block     0x0000000000200000        0x0 ccd.o
 .bss_block     0x0000000000200000        0x0 cfar.o
 .bss_block     0x0000000000200000        0x0 sinc_interp.o
 .bss_block     0x0000000000200000        0x0 sinc.o
 .bss_block     0x0000000000200000        0x0 fftw3.o
 .bss_block     0x0000000000200000        0x0 rag_rmd.o
 .bss_block     0x0000000000200000        0x0 ./Data.o
 .bss_block     0x0000000000200000        0x0 ./PlatformPosition.o
 .bss_block     0x0000000000200000        0x0 ./PulseTransmissionTime.o
 .bss_block     0x0000000000200000        0x0 ../../../../../ss/runtime/libxe/libxert.a(xe-codelet.o)
 .bss_block     0x0000000000200000        0x0 ../../../../../ss/runtime/libxe/libxert.a(xe-codelet-header.o)
 .bss_block     0x0000000000200000        0x0 ../../../../../ss/runtime/libxe/libxert.a(xe-console.o)
 .bss_block     0x0000000000200000        0x0 ../../../../../ss/runtime/libxe/libxert.a(codelet-main.o)
 .bss_block     0x0000000000200000        0x0 ../../../../../ss/runtime/libxe/libxert.a(xe-allocators.o)
 .bss_block     0x0000000000200000        0x0 ../../../../../ss/runtime/libxe/libxert.a(xe-memory.o)
 .bss_block     0x0000000000200000        0x0 ../../../../../ss/runtime/libxe/libxert.a(xe-tlsf-allocator.o)
 .bss_block     0x0000000000200000        0x0 ../../../../../ss/runtime/libxe/libxert.a(xe-guid-allocator.o)
 .bss_block     0x0000000000200000        0x0 ../../../../../ss/runtime/libxe/libxert.a(xe-utils.o)
 .bss_block     0x0000000000200000        0x0 ../../../../../ss/runtime/libxe/libxert.a(xe-dumper.o)
 .bss_block     0x0000000000200000        0x0 ../../../../../ss/bin/rmd-linux-elf/lib/libc.a(lib_a-exit.o)
 .bss_block     0x0000000000200000        0x0 ../../../../../ss/bin/rmd-linux-elf/lib/libc.a(lib_a-fprintf.o)
 .bss_block     0x0000000000200000        0x0 ../../../../../ss/bin/rmd-linux-elf/lib/libc.a(lib_a-impure.o)
 .bss_block     0x0000000000200000        0x0 ../../../../../ss/bin/rmd-linux-elf/lib/libc.a(lib_a-memcpy.o)
 .bss_block     0x0000000000200000        0x0 ../../../../../ss/bin/rmd-linux-elf/lib/libc.a(lib_a-memset.o)
 .bss_block     0x0000000000200000        0x0 ../../../../../ss/bin/rmd-linux-elf/lib/libc.a(lib_a-printf.o)
 .bss_block     0x0000000000200000        0x0 ../../../../../ss/bin/rmd-linux-elf/lib/libc.a(lib_a-strerror.o)
 .bss_block     0x0000000000200000        0x0 ../../../../../ss/bin/rmd-linux-elf/lib/libc.a(lib_a-u_strerr.o)
 .bss_block     0x0000000000200000        0x0 ../../../../../ss/bin/rmd-linux-elf/lib/libc.a(lib_a-vfprintf.o)
 .bss_block     0x0000000000200000        0x0 ../../../../../ss/bin/rmd-linux-elf/lib/libc.a(lib_a-wsetup.o)
 .bss_block     0x0000000000200000        0x0 ../../../../../ss/bin/rmd-linux-elf/lib/libc.a(lib_a-__call_atexit.o)
 .bss_block     0x0000000000200000        0x0 ../../../../../ss/bin/rmd-linux-elf/lib/libc.a(lib_a-dtoa.o)
 .bss_block     0x0000000000200000        0x0 ../../../../../ss/bin/rmd-linux-elf/lib/libc.a(lib_a-fflush.o)
 .bss_block     0x0000000000200000        0x0 ../../../../../ss/bin/rmd-linux-elf/lib/libc.a(lib_a-findfp.o)
 .bss_block     0x0000000000200000        0x0 ../../../../../ss/bin/rmd-linux-elf/lib/libc.a(lib_a-fwalk.o)
 .bss_block     0x0000000000200000        0x0 ../../../../../ss/bin/rmd-linux-elf/lib/libc.a(lib_a-locale.o)
 .bss_block     0x0000000000200000        0x0 ../../../../../ss/bin/rmd-linux-elf/lib/libc.a(lib_a-makebuf.o)
 .bss_block     0x0000000000200000        0x0 ../../../../../ss/bin/rmd-linux-elf/lib/libc.a(lib_a-memchr.o)
 .bss_block     0x0000000000200000        0x0 ../../../../../ss/bin/rmd-linux-elf/lib/libc.a(lib_a-mprec.o)
 .bss_block     0x0000000000200000        0x0 ../../../../../ss/bin/rmd-linux-elf/lib/libc.a(lib_a-stdio.o)
 .bss_block     0x0000000000200000        0x0 ../../../../../ss/bin/rmd-linux-elf/lib/libc.a(lib_a-strcmp.o)
 .bss_block     0x0000000000200000        0x0 ../../../../../ss/bin/rmd-linux-elf/lib/libc.a(lib_a-strlen.o)
 .bss_block     0x0000000000200000        0x0 ../../../../../ss/bin/rmd-linux-elf/lib/libc.a(lib_a-vfiprintf.o)
 .bss_block     0x0000000000200000        0x0 ../../../../../ss/bin/rmd-linux-elf/lib/libc.a(lib_a-writer.o)
 .bss_block     0x0000000000200000        0x0 ../../../../../ss/bin/rmd-linux-elf/lib/libc.a(lib_a-closer.o)
 .bss_block     0x0000000000200000        0x0 ../../../../../ss/bin/rmd-linux-elf/lib/libc.a(lib_a-fclose.o)
 .bss_block     0x0000000000200000        0x0 ../../../../../ss/bin/rmd-linux-elf/lib/libc.a(lib_a-fputwc.o)
 .bss_block     0x0000000000200000        0x0 ../../../../../ss/bin/rmd-linux-elf/lib/libc.a(lib_a-fstatr.o)
 .bss_block     0x0000000000200000        0x0 ../../../../../ss/bin/rmd-linux-elf/lib/libc.a(lib_a-fvwrite.o)
 .bss_block     0x0000000000200000        0x0 ../../../../../ss/bin/rmd-linux-elf/lib/libc.a(lib_a-isattyr.o)
 .bss_block     0x0000000000200000        0x0 ../../../../../ss/bin/rmd-linux-elf/lib/libc.a(lib_a-lseekr.o)
 .bss_block     0x0000000000200000        0x0 ../../../../../ss/bin/rmd-linux-elf/lib/libc.a(lib_a-memmove.o)
 .bss_block     0x0000000000200000        0x0 ../../../../../ss/bin/rmd-linux-elf/lib/libc.a(lib_a-readr.o)
 .bss_block     0x0000000000200000        0x0 ../../../../../ss/bin/rmd-linux-elf/lib/libc.a(lib_a-reent.o)
 .bss_block     0x0000000000200000        0x0 ../../../../../ss/bin/rmd-linux-elf/lib/libc.a(lib_a-wbuf.o)
 .bss_block     0x0000000000200000        0x0 ../../../../../ss/bin/rmd-linux-elf/lib/libc.a(lib_a-wcrtomb.o)
 .bss_block     0x0000000000200000        0x0 ../../../../../ss/bin/rmd-linux-elf/lib/libc.a(lib_a-wctomb_r.o)
 .bss_block     0x0000000000200000        0x0 ../../../../../ss/bin/rmd-linux-elf/lib/libm.a(lib_a-s_fabs.o)
 .bss_block     0x0000000000200000        0x0 ../../../../../ss/bin/rmd-linux-elf/lib/libm.a(lib_a-sf_ceil.o)
 .bss_block     0x0000000000200000        0x0 ../../../../../ss/bin/rmd-linux-elf/lib/libm.a(lib_a-sf_fabs.o)
 .bss_block     0x0000000000200000        0x0 ../../../../../ss/bin/rmd-linux-elf/lib/libm.a(lib_a-sf_floor.o)
 .bss_block     0x0000000000200000        0x0 ../../../../../ss/bin/rmd-linux-elf/lib/libm.a(lib_a-sf_sincos.o)
 .bss_block     0x0000000000200000        0x0 ../../../../../ss/bin/rmd-linux-elf/lib/libm.a(lib_a-sf_sin.o)
 .bss_block     0x0000000000200000        0x0 ../../../../../ss/bin/rmd-linux-elf/lib/libm.a(lib_a-s_round.o)
 .bss_block     0x0000000000200000        0x0 ../../../../../ss/bin/rmd-linux-elf/lib/libm.a(lib_a-wf_fmod.o)
 .bss_block     0x0000000000200000        0x0 ../../../../../ss/bin/rmd-linux-elf/lib/libm.a(lib_a-wf_sqrt.o)
 .bss_block     0x0000000000200000        0x0 ../../../../../ss/bin/rmd-linux-elf/lib/libm.a(lib_a-w_sqrt.o)
 .bss_block     0x0000000000200000        0x0 ../../../../../ss/bin/rmd-linux-elf/lib/libm.a(lib_a-ef_fmod.o)
 .bss_block     0x0000000000200000        0x0 ../../../../../ss/bin/rmd-linux-elf/lib/libm.a(lib_a-ef_rem_pio2.o)
 .bss_block     0x0000000000200000        0x0 ../../../../../ss/bin/rmd-linux-elf/lib/libm.a(lib_a-ef_sqrt.o)
 .bss_block     0x0000000000200000        0x0 ../../../../../ss/bin/rmd-linux-elf/lib/libm.a(lib_a-e_sqrt.o)
 .bss_block     0x0000000000200000        0x0 ../../../../../ss/bin/rmd-linux-elf/lib/libm.a(lib_a-kf_cos.o)
 .bss_block     0x0000000000200000        0x0 ../../../../../ss/bin/rmd-linux-elf/lib/libm.a(lib_a-kf_rem_pio2.o)
 .bss_block     0x0000000000200000        0x0 ../../../../../ss/bin/rmd-linux-elf/lib/libm.a(lib_a-kf_sin.o)
 .bss_block     0x0000000000200000        0x0 ../../../../../ss/bin/rmd-linux-elf/lib/libm.a(lib_a-sf_scalbn.o)
 .bss_block     0x0000000000200000        0x0 ../../../../../ss/bin/rmd-linux-elf/lib/libm.a(lib_a-s_lib_ver.o)
 .bss_block     0x0000000000200000        0x0 ../../../../../ss/bin/rmd-linux-elf/lib/libm.a(lib_a-s_matherr.o)
 .bss_block     0x0000000000200000        0x0 ../../../../../ss/bin/rmd-linux-elf/lib/libm.a(lib_a-sf_copysign.o)
 .bss_block     0x0000000000200000        0x0 ../../../../../ss/bin/rmd-linux-elf/lib/libgloss_lxe.a(close.o)
 .bss_block     0x0000000000200000        0x0 ../../../../../ss/bin/rmd-linux-elf/lib/libgloss_lxe.a(fstat.o)
 .bss_block     0x0000000000200000        0x0 ../../../../../ss/bin/rmd-linux-elf/lib/libgloss_lxe.a(isatty.o)
 .bss_block     0x0000000000200000        0x0 ../../../../../ss/bin/rmd-linux-elf/lib/libgloss_lxe.a(lseek.o)
 .bss_block     0x0000000000200000        0x0 ../../../../../ss/bin/rmd-linux-elf/lib/libgloss_lxe.a(read.o)
 .bss_block     0x0000000000200000        0x0 ../../../../../ss/bin/rmd-linux-elf/lib/libgloss_lxe.a(write.o)
 .bss_block     0x0000000000200000        0x0 ../../../../../ss/bin/rmd-linux-elf/lib/libgloss_lxe.a(_exit.o)
 .bss_block     0x0000000000200000        0x0 ../../../../../ss/bin/rmd-linux-elf/lib/libgloss_lxe.a(malloc.o)
 .bss_block     0x0000000000200000        0x0 ../../../../../ss/bin/rmd-linux-elf/lib/libgloss_lxe.a(mallocr.o)
 .bss_block     0x0000000000200000        0x0 ../../../../../ss/bin/rmd-linux-elf/lib/libc.a(lib_a-errno.o)
                0x0000000000200000                ebss_block = ABSOLUTE (.)
                0x0000000000200000                _ebss_block = ABSOLUTE (.)
                0x0000000000200000                end_block = ABSOLUTE (.)
                0x0000000000200000                _end_block = ABSOLUTE (.)

.rodata
 *(.rodata)

.data           0x0000000200000000    0x43080
                0x0000000200000000                . = ALIGN (0x8)
                0x0000000200000000                _fdata = ABSOLUTE (.)
 *(.data)
 .data          0x0000000200000000        0x0 ../../../../../ss/runtime/libxe/xe-tls.o
 .data          0x0000000200000000        0x0 ../../../../../ss/bin/rmd-linux-elf/lib/crt0_lxe.o
 .data          0x0000000200000000        0x0 main.o
 .data          0x0000000200000000        0x0 inputs.o
 .data          0x0000000200000000        0x0 image_formation.o
 .data          0x0000000200000000        0x0 digspot.o
 .data          0x0000000200000000        0x0 back_proj.o
 .data          0x0000000200000000        0x0 registration.o
 .data          0x0000000200000000        0x0 ccd.o
 .data          0x0000000200000000        0x0 cfar.o
 .data          0x0000000200000000        0x0 sinc_interp.o
 .data          0x0000000200000000        0x0 sinc.o
 .data          0x0000000200000000        0x0 fftw3.o
 .data          0x0000000200000000        0x0 rag_rmd.o
 .data          0x0000000200000000    0x42000 ./Data.o
                0x0000000200000000                image_0
                0x0000000200021000                image_1
 .data          0x0000000200042000      0xc60 ./PlatformPosition.o
                0x0000000200042000                platform_0
                0x0000000200042630                platform_1
 .data          0x0000000200042c60      0x420 ./PulseTransmissionTime.o
                0x0000000200042c60                pulse_0
                0x0000000200042e70                pulse_1
 .data          0x0000000200043080        0x0 ../../../../../ss/runtime/libxe/libxert.a(xe-codelet.o)
 .data          0x0000000200043080        0x0 ../../../../../ss/runtime/libxe/libxert.a(xe-codelet-header.o)
 .data          0x0000000200043080        0x0 ../../../../../ss/runtime/libxe/libxert.a(xe-console.o)
 .data          0x0000000200043080        0x0 ../../../../../ss/runtime/libxe/libxert.a(codelet-main.o)
 .data          0x0000000200043080        0x0 ../../../../../ss/runtime/libxe/libxert.a(xe-allocators.o)
 .data          0x0000000200043080        0x0 ../../../../../ss/runtime/libxe/libxert.a(xe-memory.o)
 .data          0x0000000200043080        0x0 ../../../../../ss/runtime/libxe/libxert.a(xe-tlsf-allocator.o)
 .data          0x0000000200043080        0x0 ../../../../../ss/runtime/libxe/libxert.a(xe-guid-allocator.o)
 .data          0x0000000200043080        0x0 ../../../../../ss/runtime/libxe/libxert.a(xe-utils.o)
 .data          0x0000000200043080        0x0 ../../../../../ss/runtime/libxe/libxert.a(xe-dumper.o)
 .data          0x0000000200043080        0x0 ../../../../../ss/bin/rmd-linux-elf/lib/libc.a(lib_a-exit.o)
 .data          0x0000000200043080        0x0 ../../../../../ss/bin/rmd-linux-elf/lib/libc.a(lib_a-fprintf.o)
 .data          0x0000000200043080        0x0 ../../../../../ss/bin/rmd-linux-elf/lib/libc.a(lib_a-impure.o)
 .data          0x0000000200043080        0x0 ../../../../../ss/bin/rmd-linux-elf/lib/libc.a(lib_a-memcpy.o)
 .data          0x0000000200043080        0x0 ../../../../../ss/bin/rmd-linux-elf/lib/libc.a(lib_a-memset.o)
 .data          0x0000000200043080        0x0 ../../../../../ss/bin/rmd-linux-elf/lib/libc.a(lib_a-printf.o)
 .data          0x0000000200043080        0x0 ../../../../../ss/bin/rmd-linux-elf/lib/libc.a(lib_a-strerror.o)
 .data          0x0000000200043080        0x0 ../../../../../ss/bin/rmd-linux-elf/lib/libc.a(lib_a-u_strerr.o)
 .data          0x0000000200043080        0x0 ../../../../../ss/bin/rmd-linux-elf/lib/libc.a(lib_a-vfprintf.o)
 .data          0x0000000200043080        0x0 ../../../../../ss/bin/rmd-linux-elf/lib/libc.a(lib_a-wsetup.o)
 .data          0x0000000200043080        0x0 ../../../../../ss/bin/rmd-linux-elf/lib/libc.a(lib_a-__call_atexit.o)
 .data          0x0000000200043080        0x0 ../../../../../ss/bin/rmd-linux-elf/lib/libc.a(lib_a-dtoa.o)
 .data          0x0000000200043080        0x0 ../../../../../ss/bin/rmd-linux-elf/lib/libc.a(lib_a-fflush.o)
 .data          0x0000000200043080        0x0 ../../../../../ss/bin/rmd-linux-elf/lib/libc.a(lib_a-findfp.o)
 .data          0x0000000200043080        0x0 ../../../../../ss/bin/rmd-linux-elf/lib/libc.a(lib_a-fwalk.o)
 .data          0x0000000200043080        0x0 ../../../../../ss/bin/rmd-linux-elf/lib/libc.a(lib_a-locale.o)
 .data          0x0000000200043080        0x0 ../../../../../ss/bin/rmd-linux-elf/lib/libc.a(lib_a-makebuf.o)
 .data          0x0000000200043080        0x0 ../../../../../ss/bin/rmd-linux-elf/lib/libc.a(lib_a-memchr.o)
 .data          0x0000000200043080        0x0 ../../../../../ss/bin/rmd-linux-elf/lib/libc.a(lib_a-mprec.o)
 .data          0x0000000200043080        0x0 ../../../../../ss/bin/rmd-linux-elf/lib/libc.a(lib_a-stdio.o)
 .data          0x0000000200043080        0x0 ../../../../../ss/bin/rmd-linux-elf/lib/libc.a(lib_a-strcmp.o)
 .data          0x0000000200043080        0x0 ../../../../../ss/bin/rmd-linux-elf/lib/libc.a(lib_a-strlen.o)
 .data          0x0000000200043080        0x0 ../../../../../ss/bin/rmd-linux-elf/lib/libc.a(lib_a-vfiprintf.o)
 .data          0x0000000200043080        0x0 ../../../../../ss/bin/rmd-linux-elf/lib/libc.a(lib_a-writer.o)
 .data          0x0000000200043080        0x0 ../../../../../ss/bin/rmd-linux-elf/lib/libc.a(lib_a-closer.o)
 .data          0x0000000200043080        0x0 ../../../../../ss/bin/rmd-linux-elf/lib/libc.a(lib_a-fclose.o)
 .data          0x0000000200043080        0x0 ../../../../../ss/bin/rmd-linux-elf/lib/libc.a(lib_a-fputwc.o)
 .data          0x0000000200043080        0x0 ../../../../../ss/bin/rmd-linux-elf/lib/libc.a(lib_a-fstatr.o)
 .data          0x0000000200043080        0x0 ../../../../../ss/bin/rmd-linux-elf/lib/libc.a(lib_a-fvwrite.o)
 .data          0x0000000200043080        0x0 ../../../../../ss/bin/rmd-linux-elf/lib/libc.a(lib_a-isattyr.o)
 .data          0x0000000200043080        0x0 ../../../../../ss/bin/rmd-linux-elf/lib/libc.a(lib_a-lseekr.o)
 .data          0x0000000200043080        0x0 ../../../../../ss/bin/rmd-linux-elf/lib/libc.a(lib_a-memmove.o)
 .data          0x0000000200043080        0x0 ../../../../../ss/bin/rmd-linux-elf/lib/libc.a(lib_a-readr.o)
 .data          0x0000000200043080        0x0 ../../../../../ss/bin/rmd-linux-elf/lib/libc.a(lib_a-reent.o)
 .data          0x0000000200043080        0x0 ../../../../../ss/bin/rmd-linux-elf/lib/libc.a(lib_a-wbuf.o)
 .data          0x0000000200043080        0x0 ../../../../../ss/bin/rmd-linux-elf/lib/libc.a(lib_a-wcrtomb.o)
 .data          0x0000000200043080        0x0 ../../../../../ss/bin/rmd-linux-elf/lib/libc.a(lib_a-wctomb_r.o)
 .data          0x0000000200043080        0x0 ../../../../../ss/bin/rmd-linux-elf/lib/libm.a(lib_a-s_fabs.o)
 .data          0x0000000200043080        0x0 ../../../../../ss/bin/rmd-linux-elf/lib/libm.a(lib_a-sf_ceil.o)
 .data          0x0000000200043080        0x0 ../../../../../ss/bin/rmd-linux-elf/lib/libm.a(lib_a-sf_fabs.o)
 .data          0x0000000200043080        0x0 ../../../../../ss/bin/rmd-linux-elf/lib/libm.a(lib_a-sf_floor.o)
 .data          0x0000000200043080        0x0 ../../../../../ss/bin/rmd-linux-elf/lib/libm.a(lib_a-sf_sincos.o)
 .data          0x0000000200043080        0x0 ../../../../../ss/bin/rmd-linux-elf/lib/libm.a(lib_a-sf_sin.o)
 .data          0x0000000200043080        0x0 ../../../../../ss/bin/rmd-linux-elf/lib/libm.a(lib_a-s_round.o)
 .data          0x0000000200043080        0x0 ../../../../../ss/bin/rmd-linux-elf/lib/libm.a(lib_a-wf_fmod.o)
 .data          0x0000000200043080        0x0 ../../../../../ss/bin/rmd-linux-elf/lib/libm.a(lib_a-wf_sqrt.o)
 .data          0x0000000200043080        0x0 ../../../../../ss/bin/rmd-linux-elf/lib/libm.a(lib_a-w_sqrt.o)
 .data          0x0000000200043080        0x0 ../../../../../ss/bin/rmd-linux-elf/lib/libm.a(lib_a-ef_fmod.o)
 .data          0x0000000200043080        0x0 ../../../../../ss/bin/rmd-linux-elf/lib/libm.a(lib_a-ef_rem_pio2.o)
 .data          0x0000000200043080        0x0 ../../../../../ss/bin/rmd-linux-elf/lib/libm.a(lib_a-ef_sqrt.o)
 .data          0x0000000200043080        0x0 ../../../../../ss/bin/rmd-linux-elf/lib/libm.a(lib_a-e_sqrt.o)
 .data          0x0000000200043080        0x0 ../../../../../ss/bin/rmd-linux-elf/lib/libm.a(lib_a-kf_cos.o)
 .data          0x0000000200043080        0x0 ../../../../../ss/bin/rmd-linux-elf/lib/libm.a(lib_a-kf_rem_pio2.o)
 .data          0x0000000200043080        0x0 ../../../../../ss/bin/rmd-linux-elf/lib/libm.a(lib_a-kf_sin.o)
 .data          0x0000000200043080        0x0 ../../../../../ss/bin/rmd-linux-elf/lib/libm.a(lib_a-sf_scalbn.o)
 .data          0x0000000200043080        0x0 ../../../../../ss/bin/rmd-linux-elf/lib/libm.a(lib_a-s_lib_ver.o)
 .data          0x0000000200043080        0x0 ../../../../../ss/bin/rmd-linux-elf/lib/libm.a(lib_a-s_matherr.o)
 .data          0x0000000200043080        0x0 ../../../../../ss/bin/rmd-linux-elf/lib/libm.a(lib_a-sf_copysign.o)
 .data          0x0000000200043080        0x0 ../../../../../ss/bin/rmd-linux-elf/lib/libgloss_lxe.a(close.o)
 .data          0x0000000200043080        0x0 ../../../../../ss/bin/rmd-linux-elf/lib/libgloss_lxe.a(fstat.o)
 .data          0x0000000200043080        0x0 ../../../../../ss/bin/rmd-linux-elf/lib/libgloss_lxe.a(isatty.o)
 .data          0x0000000200043080        0x0 ../../../../../ss/bin/rmd-linux-elf/lib/libgloss_lxe.a(lseek.o)
 .data          0x0000000200043080        0x0 ../../../../../ss/bin/rmd-linux-elf/lib/libgloss_lxe.a(read.o)
 .data          0x0000000200043080        0x0 ../../../../../ss/bin/rmd-linux-elf/lib/libgloss_lxe.a(write.o)
 .data          0x0000000200043080        0x0 ../../../../../ss/bin/rmd-linux-elf/lib/libgloss_lxe.a(_exit.o)
 .data          0x0000000200043080        0x0 ../../../../../ss/bin/rmd-linux-elf/lib/libgloss_lxe.a(malloc.o)
 .data          0x0000000200043080        0x0 ../../../../../ss/bin/rmd-linux-elf/lib/libgloss_lxe.a(mallocr.o)
 .data          0x0000000200043080        0x0 ../../../../../ss/bin/rmd-linux-elf/lib/libc.a(lib_a-errno.o)
                0x0000000200043080                edata = ABSOLUTE (.)
                0x0000000200043080                _edata = ABSOLUTE (.)

.bss            0x0000000200043080        0x0
                0x0000000200043080                . = ALIGN (0x8)
                0x0000000200043080                _fbss = ABSOLUTE (.)
 *(.bss)
 .bss           0x0000000200043080        0x0 ../../../../../ss/runtime/libxe/xe-tls.o
 .bss           0x0000000200043080        0x0 ../../../../../ss/bin/rmd-linux-elf/lib/crt0_lxe.o
 .bss           0x0000000200043080        0x0 main.o
 .bss           0x0000000200043080        0x0 inputs.o
 .bss           0x0000000200043080        0x0 image_formation.o
 .bss           0x0000000200043080        0x0 digspot.o
 .bss           0x0000000200043080        0x0 back_proj.o
 .bss           0x0000000200043080        0x0 registration.o
 .bss           0x0000000200043080        0x0 ccd.o
 .bss           0x0000000200043080        0x0 cfar.o
 .bss           0x0000000200043080        0x0 sinc_interp.o
 .bss           0x0000000200043080        0x0 sinc.o
 .bss           0x0000000200043080        0x0 fftw3.o
 .bss           0x0000000200043080        0x0 rag_rmd.o
 .bss           0x0000000200043080        0x0 ./Data.o
 .bss           0x0000000200043080        0x0 ./PlatformPosition.o
 .bss           0x0000000200043080        0x0 ./PulseTransmissionTime.o
 .bss           0x0000000200043080        0x0 ../../../../../ss/runtime/libxe/libxert.a(xe-codelet.o)
 .bss           0x0000000200043080        0x0 ../../../../../ss/runtime/libxe/libxert.a(xe-codelet-header.o)
 .bss           0x0000000200043080        0x0 ../../../../../ss/runtime/libxe/libxert.a(xe-console.o)
 .bss           0x0000000200043080        0x0 ../../../../../ss/runtime/libxe/libxert.a(codelet-main.o)
 .bss           0x0000000200043080        0x0 ../../../../../ss/runtime/libxe/libxert.a(xe-allocators.o)
 .bss           0x0000000200043080        0x0 ../../../../../ss/runtime/libxe/libxert.a(xe-memory.o)
 .bss           0x0000000200043080        0x0 ../../../../../ss/runtime/libxe/libxert.a(xe-tlsf-allocator.o)
 .bss           0x0000000200043080        0x0 ../../../../../ss/runtime/libxe/libxert.a(xe-guid-allocator.o)
 .bss           0x0000000200043080        0x0 ../../../../../ss/runtime/libxe/libxert.a(xe-utils.o)
 .bss           0x0000000200043080        0x0 ../../../../../ss/runtime/libxe/libxert.a(xe-dumper.o)
 .bss           0x0000000200043080        0x0 ../../../../../ss/bin/rmd-linux-elf/lib/libc.a(lib_a-exit.o)
 .bss           0x0000000200043080        0x0 ../../../../../ss/bin/rmd-linux-elf/lib/libc.a(lib_a-fprintf.o)
 .bss           0x0000000200043080        0x0 ../../../../../ss/bin/rmd-linux-elf/lib/libc.a(lib_a-impure.o)
 .bss           0x0000000200043080        0x0 ../../../../../ss/bin/rmd-linux-elf/lib/libc.a(lib_a-memcpy.o)
 .bss           0x0000000200043080        0x0 ../../../../../ss/bin/rmd-linux-elf/lib/libc.a(lib_a-memset.o)
 .bss           0x0000000200043080        0x0 ../../../../../ss/bin/rmd-linux-elf/lib/libc.a(lib_a-printf.o)
 .bss           0x0000000200043080        0x0 ../../../../../ss/bin/rmd-linux-elf/lib/libc.a(lib_a-strerror.o)
 .bss           0x0000000200043080        0x0 ../../../../../ss/bin/rmd-linux-elf/lib/libc.a(lib_a-u_strerr.o)
 .bss           0x0000000200043080        0x0 ../../../../../ss/bin/rmd-linux-elf/lib/libc.a(lib_a-vfprintf.o)
 .bss           0x0000000200043080        0x0 ../../../../../ss/bin/rmd-linux-elf/lib/libc.a(lib_a-wsetup.o)
 .bss           0x0000000200043080        0x0 ../../../../../ss/bin/rmd-linux-elf/lib/libc.a(lib_a-__call_atexit.o)
 .bss           0x0000000200043080        0x0 ../../../../../ss/bin/rmd-linux-elf/lib/libc.a(lib_a-dtoa.o)
 .bss           0x0000000200043080        0x0 ../../../../../ss/bin/rmd-linux-elf/lib/libc.a(lib_a-fflush.o)
 .bss           0x0000000200043080        0x0 ../../../../../ss/bin/rmd-linux-elf/lib/libc.a(lib_a-findfp.o)
 .bss           0x0000000200043080        0x0 ../../../../../ss/bin/rmd-linux-elf/lib/libc.a(lib_a-fwalk.o)
 .bss           0x0000000200043080        0x0 ../../../../../ss/bin/rmd-linux-elf/lib/libc.a(lib_a-locale.o)
 .bss           0x0000000200043080        0x0 ../../../../../ss/bin/rmd-linux-elf/lib/libc.a(lib_a-makebuf.o)
 .bss           0x0000000200043080        0x0 ../../../../../ss/bin/rmd-linux-elf/lib/libc.a(lib_a-memchr.o)
 .bss           0x0000000200043080        0x0 ../../../../../ss/bin/rmd-linux-elf/lib/libc.a(lib_a-mprec.o)
 .bss           0x0000000200043080        0x0 ../../../../../ss/bin/rmd-linux-elf/lib/libc.a(lib_a-stdio.o)
 .bss           0x0000000200043080        0x0 ../../../../../ss/bin/rmd-linux-elf/lib/libc.a(lib_a-strcmp.o)
 .bss           0x0000000200043080        0x0 ../../../../../ss/bin/rmd-linux-elf/lib/libc.a(lib_a-strlen.o)
 .bss           0x0000000200043080        0x0 ../../../../../ss/bin/rmd-linux-elf/lib/libc.a(lib_a-vfiprintf.o)
 .bss           0x0000000200043080        0x0 ../../../../../ss/bin/rmd-linux-elf/lib/libc.a(lib_a-writer.o)
 .bss           0x0000000200043080        0x0 ../../../../../ss/bin/rmd-linux-elf/lib/libc.a(lib_a-closer.o)
 .bss           0x0000000200043080        0x0 ../../../../../ss/bin/rmd-linux-elf/lib/libc.a(lib_a-fclose.o)
 .bss           0x0000000200043080        0x0 ../../../../../ss/bin/rmd-linux-elf/lib/libc.a(lib_a-fputwc.o)
 .bss           0x0000000200043080        0x0 ../../../../../ss/bin/rmd-linux-elf/lib/libc.a(lib_a-fstatr.o)
 .bss           0x0000000200043080        0x0 ../../../../../ss/bin/rmd-linux-elf/lib/libc.a(lib_a-fvwrite.o)
 .bss           0x0000000200043080        0x0 ../../../../../ss/bin/rmd-linux-elf/lib/libc.a(lib_a-isattyr.o)
 .bss           0x0000000200043080        0x0 ../../../../../ss/bin/rmd-linux-elf/lib/libc.a(lib_a-lseekr.o)
 .bss           0x0000000200043080        0x0 ../../../../../ss/bin/rmd-linux-elf/lib/libc.a(lib_a-memmove.o)
 .bss           0x0000000200043080        0x0 ../../../../../ss/bin/rmd-linux-elf/lib/libc.a(lib_a-readr.o)
 .bss           0x0000000200043080        0x0 ../../../../../ss/bin/rmd-linux-elf/lib/libc.a(lib_a-reent.o)
 .bss           0x0000000200043080        0x0 ../../../../../ss/bin/rmd-linux-elf/lib/libc.a(lib_a-wbuf.o)
 .bss           0x0000000200043080        0x0 ../../../../../ss/bin/rmd-linux-elf/lib/libc.a(lib_a-wcrtomb.o)
 .bss           0x0000000200043080        0x0 ../../../../../ss/bin/rmd-linux-elf/lib/libc.a(lib_a-wctomb_r.o)
 .bss           0x0000000200043080        0x0 ../../../../../ss/bin/rmd-linux-elf/lib/libm.a(lib_a-s_fabs.o)
 .bss           0x0000000200043080        0x0 ../../../../../ss/bin/rmd-linux-elf/lib/libm.a(lib_a-sf_ceil.o)
 .bss           0x0000000200043080        0x0 ../../../../../ss/bin/rmd-linux-elf/lib/libm.a(lib_a-sf_fabs.o)
 .bss           0x0000000200043080        0x0 ../../../../../ss/bin/rmd-linux-elf/lib/libm.a(lib_a-sf_floor.o)
 .bss           0x0000000200043080        0x0 ../../../../../ss/bin/rmd-linux-elf/lib/libm.a(lib_a-sf_sincos.o)
 .bss           0x0000000200043080        0x0 ../../../../../ss/bin/rmd-linux-elf/lib/libm.a(lib_a-sf_sin.o)
 .bss           0x0000000200043080        0x0 ../../../../../ss/bin/rmd-linux-elf/lib/libm.a(lib_a-s_round.o)
 .bss           0x0000000200043080        0x0 ../../../../../ss/bin/rmd-linux-elf/lib/libm.a(lib_a-wf_fmod.o)
 .bss           0x0000000200043080        0x0 ../../../../../ss/bin/rmd-linux-elf/lib/libm.a(lib_a-wf_sqrt.o)
 .bss           0x0000000200043080        0x0 ../../../../../ss/bin/rmd-linux-elf/lib/libm.a(lib_a-w_sqrt.o)
 .bss           0x0000000200043080        0x0 ../../../../../ss/bin/rmd-linux-elf/lib/libm.a(lib_a-ef_fmod.o)
 .bss           0x0000000200043080        0x0 ../../../../../ss/bin/rmd-linux-elf/lib/libm.a(lib_a-ef_rem_pio2.o)
 .bss           0x0000000200043080        0x0 ../../../../../ss/bin/rmd-linux-elf/lib/libm.a(lib_a-ef_sqrt.o)
 .bss           0x0000000200043080        0x0 ../../../../../ss/bin/rmd-linux-elf/lib/libm.a(lib_a-e_sqrt.o)
 .bss           0x0000000200043080        0x0 ../../../../../ss/bin/rmd-linux-elf/lib/libm.a(lib_a-kf_cos.o)
 .bss           0x0000000200043080        0x0 ../../../../../ss/bin/rmd-linux-elf/lib/libm.a(lib_a-kf_rem_pio2.o)
 .bss           0x0000000200043080        0x0 ../../../../../ss/bin/rmd-linux-elf/lib/libm.a(lib_a-kf_sin.o)
 .bss           0x0000000200043080        0x0 ../../../../../ss/bin/rmd-linux-elf/lib/libm.a(lib_a-sf_scalbn.o)
 .bss           0x0000000200043080        0x0 ../../../../../ss/bin/rmd-linux-elf/lib/libm.a(lib_a-s_lib_ver.o)
 .bss           0x0000000200043080        0x0 ../../../../../ss/bin/rmd-linux-elf/lib/libm.a(lib_a-s_matherr.o)
 .bss           0x0000000200043080        0x0 ../../../../../ss/bin/rmd-linux-elf/lib/libm.a(lib_a-sf_copysign.o)
 .bss           0x0000000200043080        0x0 ../../../../../ss/bin/rmd-linux-elf/lib/libgloss_lxe.a(close.o)
 .bss           0x0000000200043080        0x0 ../../../../../ss/bin/rmd-linux-elf/lib/libgloss_lxe.a(fstat.o)
 .bss           0x0000000200043080        0x0 ../../../../../ss/bin/rmd-linux-elf/lib/libgloss_lxe.a(isatty.o)
 .bss           0x0000000200043080        0x0 ../../../../../ss/bin/rmd-linux-elf/lib/libgloss_lxe.a(lseek.o)
 .bss           0x0000000200043080        0x0 ../../../../../ss/bin/rmd-linux-elf/lib/libgloss_lxe.a(read.o)
 .bss           0x0000000200043080        0x0 ../../../../../ss/bin/rmd-linux-elf/lib/libgloss_lxe.a(write.o)
 .bss           0x0000000200043080        0x0 ../../../../../ss/bin/rmd-linux-elf/lib/libgloss_lxe.a(_exit.o)
 .bss           0x0000000200043080        0x0 ../../../../../ss/bin/rmd-linux-elf/lib/libgloss_lxe.a(malloc.o)
 .bss           0x0000000200043080        0x0 ../../../../../ss/bin/rmd-linux-elf/lib/libgloss_lxe.a(mallocr.o)
 .bss           0x0000000200043080        0x0 ../../../../../ss/bin/rmd-linux-elf/lib/libc.a(lib_a-errno.o)
 *(COMMON)
                0x0000000200043080                ebss = ABSOLUTE (.)
                0x0000000200043080                _ebss = ABSOLUTE (.)
                0x0000000200043080                end = ABSOLUTE (.)
                0x0000000200043080                _end = ABSOLUTE (.)
LOAD main.o
LOAD inputs.o
LOAD image_formation.o
LOAD digspot.o
LOAD back_proj.o
LOAD registration.o
LOAD ccd.o
LOAD cfar.o
LOAD sinc_interp.o
LOAD sinc.o
LOAD fftw3.o
LOAD rag_rmd.o
LOAD ./Data.o
LOAD ./PlatformPosition.o
LOAD ./PulseTransmissionTime.o
LOAD ../../../../../ss/runtime/libxe/libxert.a
START GROUP
LOAD ../../../../../ss/bin/rmd-linux-elf/lib/libc.a
LOAD ../../../../../ss/bin/rmd-linux-elf/lib/libg.a
LOAD ../../../../../ss/bin/rmd-linux-elf/lib/libm.a
LOAD ../../../../../ss/bin/rmd-linux-elf/lib/libgloss_lxe.a
END GROUP
OUTPUT(sscp elf32-rmd)
